

Microchip MPLAB XC8 Assembler V3.00 build 20241204225717 
                                                                                               Tue Nov 25 15:47:58 2025

Microchip MPLAB XC8 C Compiler v3.00 (Free license) build 20241204225717 Og1 
     1                           	processor	18F4520
     2                           	fnconf	rparam,??,?,0
     3                           	pagewidth 120
     4                           	opt	flic
     5                           	psect	idataBANK0,global,class=CODE,space=0,delta=1,noexec
     6                           	psect	smallconst,global,reloc=2,class=SMALLCONST,space=0,delta=1,noexec
     7                           	psect	cinit,global,reloc=2,class=CODE,space=0,delta=1
     8                           	psect	bssCOMRAM,global,class=COMRAM,space=1,delta=1,lowdata,noexec
     9                           	psect	bssBANK0,global,class=BANK0,space=1,delta=1,lowdata,noexec
    10                           	psect	dataBANK0,global,class=BANK0,space=1,delta=1,lowdata,noexec
    11                           	psect	bssBANK1,global,class=BANK1,space=1,delta=1,lowdata,noexec
    12                           	psect	cstackBANK1,global,class=BANK1,space=1,delta=1,lowdata,noexec
    13                           	psect	cstackBANK0,global,class=BANK0,space=1,delta=1,lowdata,noexec
    14                           	psect	cstackCOMRAM,global,class=COMRAM,space=1,delta=1,lowdata,noexec
    15                           	psect	text0,global,reloc=2,class=CODE,space=0,delta=1
    16                           	psect	text1,global,reloc=2,class=CODE,space=0,delta=1
    17                           	psect	text2,global,reloc=2,class=CODE,space=0,delta=1
    18                           	psect	text3,global,reloc=2,class=CODE,space=0,delta=1
    19                           	psect	text4,global,reloc=2,class=CODE,space=0,delta=1,group=3
    20                           	psect	text5,global,reloc=2,class=CODE,space=0,delta=1
    21                           	psect	text6,global,reloc=2,class=CODE,space=0,delta=1
    22                           	psect	text7,global,reloc=2,class=CODE,space=0,delta=1
    23                           	psect	text8,global,reloc=2,class=CODE,space=0,delta=1
    24                           	psect	text9,global,reloc=2,class=CODE,space=0,delta=1,group=3
    25                           	psect	text10,global,reloc=2,class=CODE,space=0,delta=1,group=2
    26                           	psect	text11,global,reloc=2,class=CODE,space=0,delta=1
    27                           	psect	text12,global,reloc=2,class=CODE,space=0,delta=1
    28                           	psect	text13,global,reloc=2,class=CODE,space=0,delta=1
    29                           	psect	text14,global,reloc=2,class=CODE,space=0,delta=1,group=3
    30                           	psect	text15,global,reloc=2,class=CODE,space=0,delta=1,group=3
    31                           	psect	text16,global,reloc=2,class=CODE,space=0,delta=1,group=1
    32                           	psect	text17,global,reloc=2,class=CODE,space=0,delta=1,group=1
    33                           	psect	text18,global,reloc=2,class=CODE,space=0,delta=1,group=3
    34                           	psect	text19,global,reloc=2,class=CODE,space=0,delta=1,group=3
    35                           	psect	text20,global,reloc=2,class=CODE,space=0,delta=1,group=2
    36                           	psect	text21,global,reloc=2,class=CODE,space=0,delta=1
    37                           	psect	text22,global,reloc=2,class=CODE,space=0,delta=1,group=3
    38                           	psect	text23,global,reloc=2,class=CODE,space=0,delta=1,group=2
    39                           	psect	text24,global,reloc=2,class=CODE,space=0,delta=1,group=2
    40                           	psect	intcodelo,global,reloc=2,class=CODE,space=0,delta=1
    41                           	psect	intcode,global,reloc=2,class=CODE,space=0,delta=1
    42                           	psect	intcode_body,global,reloc=2,class=CODE,space=0,delta=1
    43                           	psect	text27,global,reloc=2,class=CODE,space=0,delta=1
    44                           	psect	text28,global,reloc=2,class=CODE,space=0,delta=1
    45                           	psect	text29,global,reloc=2,class=CODE,space=0,delta=1,group=2
    46                           	psect	text30,global,reloc=2,class=CODE,space=0,delta=1,group=2
    47                           	psect	intsave_regs,global,class=BIGRAM,space=1,delta=1,noexec
    48                           	psect	rparam,global,class=COMRAM,space=1,delta=1,noexec
    49                           	psect	temp,global,ovrld,common,class=COMRAM,space=1,delta=1,lowdata
    50                           	psect	idloc,global,abs,ovrld,class=IDLOC,space=5,delta=1,noexec
    51                           	psect	config,global,abs,ovrld,class=CONFIG,space=4,delta=1,noexec
    52   000000                     
    53                           ; Generated 05/12/2024 GMT
    54                           ; 
    55                           ; Copyright © 2024, Microchip Technology Inc. and its subsidiaries ("Microchip")
    56                           ; All rights reserved.
    57                           ; 
    58                           ; This software is developed by Microchip Technology Inc. and its subsidiaries ("Microch
      +                          ip").
    59                           ; 
    60                           ; Redistribution and use in source and binary forms, with or without modification, are
    61                           ; permitted provided that the following conditions are met:
    62                           ; 
    63                           ;     1. Redistributions of source code must retain the above copyright notice, this lis
      +                          t of
    64                           ;        conditions and the following disclaimer.
    65                           ; 
    66                           ;     2. Redistributions in binary form must reproduce the above copyright notice, this 
      +                          list
    67                           ;        of conditions and the following disclaimer in the documentation and/or other
    68                           ;        materials provided with the distribution. Publication is not required when
    69                           ;        this file is used in an embedded application.
    70                           ; 
    71                           ;     3. Microchip's name may not be used to endorse or promote products derived from th
      +                          is
    72                           ;        software without specific prior written permission.
    73                           ; 
    74                           ; THIS SOFTWARE IS PROVIDED BY MICROCHIP "AS IS" AND ANY EXPRESS OR IMPLIED WARRANTIES,
    75                           ; INCLUDING, BUT NOT LIMITED TO, THE IMPLIED WARRANTIES OF MERCHANTABILITY AND FITNESS F
      +                          OR
    76                           ; PURPOSE ARE DISCLAIMED.  IN NO EVENT SHALL MICROCHIP BE LIABLE FOR ANY DIRECT, INDIREC
      +                          T,
    77                           ; INCIDENTAL, SPECIAL, EXEMPLARY, OR CONSEQUENTIAL DAMAGES (INCLUDING BUT NOT LIMITED TO
    78                           ; PROCUREMENT OF SUBSTITUTE GOODS OR SERVICES; LOSS OF USE, DATA OR PROFITS; OR BUSINESS
    79                           ; INTERRUPTION) HOWSOEVER CAUSED AND ON ANY THEORY OF LIABILITY, WHETHER IN CONTRACT, ST
      +                          RICT
    80                           ; LIABILITY, OR TORT (INCLUDING NEGLIGENCE OR OTHERWISE) ARISING IN ANY WAY OUT OF THE U
      +                          SE OF
    81                           ; THIS SOFTWARE, EVEN IF ADVISED OF THE POSSIBILITY OF SUCH DAMAGE.
    82                           ; 
    83                           ; 
    84                           ; Code-generator required, PIC18F4520 Definitions
    85                           ; 
    86                           ; SFR Addresses
    87   000FE0                     bsr             equ	4064
    88   000FE9                     fsr0            equ	4073
    89   000FEA                     fsr0h           equ	4074
    90   000FE9                     fsr0l           equ	4073
    91   000FE1                     fsr1            equ	4065
    92   000FE2                     fsr1h           equ	4066
    93   000FE1                     fsr1l           equ	4065
    94   000FD9                     fsr2            equ	4057
    95   000FDA                     fsr2h           equ	4058
    96   000FD9                     fsr2l           equ	4057
    97   000FEF                     indf0           equ	4079
    98   000FE7                     indf1           equ	4071
    99   000FDF                     indf2           equ	4063
   100   000FF2                     intcon          equ	4082
   101   000000                     nvmcon          equ	0
   102   000FF9                     pcl             equ	4089
   103   000FFA                     pclath          equ	4090
   104   000FFB                     pclatu          equ	4091
   105   000FEB                     plusw0          equ	4075
   106   000FE3                     plusw1          equ	4067
   107   000FDB                     plusw2          equ	4059
   108   000FED                     postdec0        equ	4077
   109   000FE5                     postdec1        equ	4069
   110   000FDD                     postdec2        equ	4061
   111   000FEE                     postinc0        equ	4078
   112   000FE6                     postinc1        equ	4070
   113   000FDE                     postinc2        equ	4062
   114   000FEC                     preinc0         equ	4076
   115   000FE4                     preinc1         equ	4068
   116   000FDC                     preinc2         equ	4060
   117   000FF3                     prod            equ	4083
   118   000FF4                     prodh           equ	4084
   119   000FF3                     prodl           equ	4083
   120   000FD8                     status          equ	4056
   121   000FF5                     tablat          equ	4085
   122   000FF6                     tblptr          equ	4086
   123   000FF7                     tblptrh         equ	4087
   124   000FF6                     tblptrl         equ	4086
   125   000FF8                     tblptru         equ	4088
   126   000FFD                     tosl            equ	4093
   127   000FE8                     wreg            equ	4072
   128   000F80                     PORTA           equ	3968	;# 
   129   000F81                     PORTB           equ	3969	;# 
   130   000F82                     PORTC           equ	3970	;# 
   131   000F83                     PORTD           equ	3971	;# 
   132   000F84                     PORTE           equ	3972	;# 
   133   000F89                     LATA            equ	3977	;# 
   134   000F8A                     LATB            equ	3978	;# 
   135   000F8B                     LATC            equ	3979	;# 
   136   000F8C                     LATD            equ	3980	;# 
   137   000F8D                     LATE            equ	3981	;# 
   138   000F92                     TRISA           equ	3986	;# 
   139   000F92                     DDRA            equ	3986	;# 
   140   000F93                     TRISB           equ	3987	;# 
   141   000F93                     DDRB            equ	3987	;# 
   142   000F94                     TRISC           equ	3988	;# 
   143   000F94                     DDRC            equ	3988	;# 
   144   000F95                     TRISD           equ	3989	;# 
   145   000F95                     DDRD            equ	3989	;# 
   146   000F96                     TRISE           equ	3990	;# 
   147   000F96                     DDRE            equ	3990	;# 
   148   000F9B                     OSCTUNE         equ	3995	;# 
   149   000F9D                     PIE1            equ	3997	;# 
   150   000F9E                     PIR1            equ	3998	;# 
   151   000F9F                     IPR1            equ	3999	;# 
   152   000FA0                     PIE2            equ	4000	;# 
   153   000FA1                     PIR2            equ	4001	;# 
   154   000FA2                     IPR2            equ	4002	;# 
   155   000FA6                     EECON1          equ	4006	;# 
   156   000FA7                     EECON2          equ	4007	;# 
   157   000FA8                     EEDATA          equ	4008	;# 
   158   000FA9                     EEADR           equ	4009	;# 
   159   000FAB                     RCSTA           equ	4011	;# 
   160   000FAB                     RCSTA1          equ	4011	;# 
   161   000FAC                     TXSTA           equ	4012	;# 
   162   000FAC                     TXSTA1          equ	4012	;# 
   163   000FAD                     TXREG           equ	4013	;# 
   164   000FAD                     TXREG1          equ	4013	;# 
   165   000FAE                     RCREG           equ	4014	;# 
   166   000FAE                     RCREG1          equ	4014	;# 
   167   000FAF                     SPBRG           equ	4015	;# 
   168   000FAF                     SPBRG1          equ	4015	;# 
   169   000FB0                     SPBRGH          equ	4016	;# 
   170   000FB1                     T3CON           equ	4017	;# 
   171   000FB2                     TMR3            equ	4018	;# 
   172   000FB2                     TMR3L           equ	4018	;# 
   173   000FB3                     TMR3H           equ	4019	;# 
   174   000FB4                     CMCON           equ	4020	;# 
   175   000FB5                     CVRCON          equ	4021	;# 
   176   000FB6                     ECCP1AS         equ	4022	;# 
   177   000FB6                     ECCPAS          equ	4022	;# 
   178   000FB7                     PWM1CON         equ	4023	;# 
   179   000FB7                     ECCP1DEL        equ	4023	;# 
   180   000FB8                     BAUDCON         equ	4024	;# 
   181   000FB8                     BAUDCTL         equ	4024	;# 
   182   000FBA                     CCP2CON         equ	4026	;# 
   183   000FBB                     CCPR2           equ	4027	;# 
   184   000FBB                     CCPR2L          equ	4027	;# 
   185   000FBC                     CCPR2H          equ	4028	;# 
   186   000FBD                     CCP1CON         equ	4029	;# 
   187   000FBE                     CCPR1           equ	4030	;# 
   188   000FBE                     CCPR1L          equ	4030	;# 
   189   000FBF                     CCPR1H          equ	4031	;# 
   190   000FC0                     ADCON2          equ	4032	;# 
   191   000FC1                     ADCON1          equ	4033	;# 
   192   000FC2                     ADCON0          equ	4034	;# 
   193   000FC3                     ADRES           equ	4035	;# 
   194   000FC3                     ADRESL          equ	4035	;# 
   195   000FC4                     ADRESH          equ	4036	;# 
   196   000FC5                     SSPCON2         equ	4037	;# 
   197   000FC6                     SSPCON1         equ	4038	;# 
   198   000FC7                     SSPSTAT         equ	4039	;# 
   199   000FC8                     SSPADD          equ	4040	;# 
   200   000FC9                     SSPBUF          equ	4041	;# 
   201   000FCA                     T2CON           equ	4042	;# 
   202   000FCB                     PR2             equ	4043	;# 
   203   000FCB                     MEMCON          equ	4043	;# 
   204   000FCC                     TMR2            equ	4044	;# 
   205   000FCD                     T1CON           equ	4045	;# 
   206   000FCE                     TMR1            equ	4046	;# 
   207   000FCE                     TMR1L           equ	4046	;# 
   208   000FCF                     TMR1H           equ	4047	;# 
   209   000FD0                     RCON            equ	4048	;# 
   210   000FD1                     WDTCON          equ	4049	;# 
   211   000FD2                     HLVDCON         equ	4050	;# 
   212   000FD2                     LVDCON          equ	4050	;# 
   213   000FD3                     OSCCON          equ	4051	;# 
   214   000FD5                     T0CON           equ	4053	;# 
   215   000FD6                     TMR0            equ	4054	;# 
   216   000FD6                     TMR0L           equ	4054	;# 
   217   000FD7                     TMR0H           equ	4055	;# 
   218   000FD8                     STATUS          equ	4056	;# 
   219   000FD9                     FSR2            equ	4057	;# 
   220   000FD9                     FSR2L           equ	4057	;# 
   221   000FDA                     FSR2H           equ	4058	;# 
   222   000FDB                     PLUSW2          equ	4059	;# 
   223   000FDC                     PREINC2         equ	4060	;# 
   224   000FDD                     POSTDEC2        equ	4061	;# 
   225   000FDE                     POSTINC2        equ	4062	;# 
   226   000FDF                     INDF2           equ	4063	;# 
   227   000FE0                     BSR             equ	4064	;# 
   228   000FE1                     FSR1            equ	4065	;# 
   229   000FE1                     FSR1L           equ	4065	;# 
   230   000FE2                     FSR1H           equ	4066	;# 
   231   000FE3                     PLUSW1          equ	4067	;# 
   232   000FE4                     PREINC1         equ	4068	;# 
   233   000FE5                     POSTDEC1        equ	4069	;# 
   234   000FE6                     POSTINC1        equ	4070	;# 
   235   000FE7                     INDF1           equ	4071	;# 
   236   000FE8                     WREG            equ	4072	;# 
   237   000FE9                     FSR0            equ	4073	;# 
   238   000FE9                     FSR0L           equ	4073	;# 
   239   000FEA                     FSR0H           equ	4074	;# 
   240   000FEB                     PLUSW0          equ	4075	;# 
   241   000FEC                     PREINC0         equ	4076	;# 
   242   000FED                     POSTDEC0        equ	4077	;# 
   243   000FEE                     POSTINC0        equ	4078	;# 
   244   000FEF                     INDF0           equ	4079	;# 
   245   000FF0                     INTCON3         equ	4080	;# 
   246   000FF1                     INTCON2         equ	4081	;# 
   247   000FF2                     INTCON          equ	4082	;# 
   248   000FF3                     PROD            equ	4083	;# 
   249   000FF3                     PRODL           equ	4083	;# 
   250   000FF4                     PRODH           equ	4084	;# 
   251   000FF5                     TABLAT          equ	4085	;# 
   252   000FF6                     TBLPTR          equ	4086	;# 
   253   000FF6                     TBLPTRL         equ	4086	;# 
   254   000FF7                     TBLPTRH         equ	4087	;# 
   255   000FF8                     TBLPTRU         equ	4088	;# 
   256   000FF9                     PCLAT           equ	4089	;# 
   257   000FF9                     PC              equ	4089	;# 
   258   000FF9                     PCL             equ	4089	;# 
   259   000FFA                     PCLATH          equ	4090	;# 
   260   000FFB                     PCLATU          equ	4091	;# 
   261   000FFC                     STKPTR          equ	4092	;# 
   262   000FFD                     TOS             equ	4093	;# 
   263   000FFD                     TOSL            equ	4093	;# 
   264   000FFE                     TOSH            equ	4094	;# 
   265   000FFF                     TOSU            equ	4095	;# 
   266   000F80                     PORTA           equ	3968	;# 
   267   000F81                     PORTB           equ	3969	;# 
   268   000F82                     PORTC           equ	3970	;# 
   269   000F83                     PORTD           equ	3971	;# 
   270   000F84                     PORTE           equ	3972	;# 
   271   000F89                     LATA            equ	3977	;# 
   272   000F8A                     LATB            equ	3978	;# 
   273   000F8B                     LATC            equ	3979	;# 
   274   000F8C                     LATD            equ	3980	;# 
   275   000F8D                     LATE            equ	3981	;# 
   276   000F92                     TRISA           equ	3986	;# 
   277   000F92                     DDRA            equ	3986	;# 
   278   000F93                     TRISB           equ	3987	;# 
   279   000F93                     DDRB            equ	3987	;# 
   280   000F94                     TRISC           equ	3988	;# 
   281   000F94                     DDRC            equ	3988	;# 
   282   000F95                     TRISD           equ	3989	;# 
   283   000F95                     DDRD            equ	3989	;# 
   284   000F96                     TRISE           equ	3990	;# 
   285   000F96                     DDRE            equ	3990	;# 
   286   000F9B                     OSCTUNE         equ	3995	;# 
   287   000F9D                     PIE1            equ	3997	;# 
   288   000F9E                     PIR1            equ	3998	;# 
   289   000F9F                     IPR1            equ	3999	;# 
   290   000FA0                     PIE2            equ	4000	;# 
   291   000FA1                     PIR2            equ	4001	;# 
   292   000FA2                     IPR2            equ	4002	;# 
   293   000FA6                     EECON1          equ	4006	;# 
   294   000FA7                     EECON2          equ	4007	;# 
   295   000FA8                     EEDATA          equ	4008	;# 
   296   000FA9                     EEADR           equ	4009	;# 
   297   000FAB                     RCSTA           equ	4011	;# 
   298   000FAB                     RCSTA1          equ	4011	;# 
   299   000FAC                     TXSTA           equ	4012	;# 
   300   000FAC                     TXSTA1          equ	4012	;# 
   301   000FAD                     TXREG           equ	4013	;# 
   302   000FAD                     TXREG1          equ	4013	;# 
   303   000FAE                     RCREG           equ	4014	;# 
   304   000FAE                     RCREG1          equ	4014	;# 
   305   000FAF                     SPBRG           equ	4015	;# 
   306   000FAF                     SPBRG1          equ	4015	;# 
   307   000FB0                     SPBRGH          equ	4016	;# 
   308   000FB1                     T3CON           equ	4017	;# 
   309   000FB2                     TMR3            equ	4018	;# 
   310   000FB2                     TMR3L           equ	4018	;# 
   311   000FB3                     TMR3H           equ	4019	;# 
   312   000FB4                     CMCON           equ	4020	;# 
   313   000FB5                     CVRCON          equ	4021	;# 
   314   000FB6                     ECCP1AS         equ	4022	;# 
   315   000FB6                     ECCPAS          equ	4022	;# 
   316   000FB7                     PWM1CON         equ	4023	;# 
   317   000FB7                     ECCP1DEL        equ	4023	;# 
   318   000FB8                     BAUDCON         equ	4024	;# 
   319   000FB8                     BAUDCTL         equ	4024	;# 
   320   000FBA                     CCP2CON         equ	4026	;# 
   321   000FBB                     CCPR2           equ	4027	;# 
   322   000FBB                     CCPR2L          equ	4027	;# 
   323   000FBC                     CCPR2H          equ	4028	;# 
   324   000FBD                     CCP1CON         equ	4029	;# 
   325   000FBE                     CCPR1           equ	4030	;# 
   326   000FBE                     CCPR1L          equ	4030	;# 
   327   000FBF                     CCPR1H          equ	4031	;# 
   328   000FC0                     ADCON2          equ	4032	;# 
   329   000FC1                     ADCON1          equ	4033	;# 
   330   000FC2                     ADCON0          equ	4034	;# 
   331   000FC3                     ADRES           equ	4035	;# 
   332   000FC3                     ADRESL          equ	4035	;# 
   333   000FC4                     ADRESH          equ	4036	;# 
   334   000FC5                     SSPCON2         equ	4037	;# 
   335   000FC6                     SSPCON1         equ	4038	;# 
   336   000FC7                     SSPSTAT         equ	4039	;# 
   337   000FC8                     SSPADD          equ	4040	;# 
   338   000FC9                     SSPBUF          equ	4041	;# 
   339   000FCA                     T2CON           equ	4042	;# 
   340   000FCB                     PR2             equ	4043	;# 
   341   000FCB                     MEMCON          equ	4043	;# 
   342   000FCC                     TMR2            equ	4044	;# 
   343   000FCD                     T1CON           equ	4045	;# 
   344   000FCE                     TMR1            equ	4046	;# 
   345   000FCE                     TMR1L           equ	4046	;# 
   346   000FCF                     TMR1H           equ	4047	;# 
   347   000FD0                     RCON            equ	4048	;# 
   348   000FD1                     WDTCON          equ	4049	;# 
   349   000FD2                     HLVDCON         equ	4050	;# 
   350   000FD2                     LVDCON          equ	4050	;# 
   351   000FD3                     OSCCON          equ	4051	;# 
   352   000FD5                     T0CON           equ	4053	;# 
   353   000FD6                     TMR0            equ	4054	;# 
   354   000FD6                     TMR0L           equ	4054	;# 
   355   000FD7                     TMR0H           equ	4055	;# 
   356   000FD8                     STATUS          equ	4056	;# 
   357   000FD9                     FSR2            equ	4057	;# 
   358   000FD9                     FSR2L           equ	4057	;# 
   359   000FDA                     FSR2H           equ	4058	;# 
   360   000FDB                     PLUSW2          equ	4059	;# 
   361   000FDC                     PREINC2         equ	4060	;# 
   362   000FDD                     POSTDEC2        equ	4061	;# 
   363   000FDE                     POSTINC2        equ	4062	;# 
   364   000FDF                     INDF2           equ	4063	;# 
   365   000FE0                     BSR             equ	4064	;# 
   366   000FE1                     FSR1            equ	4065	;# 
   367   000FE1                     FSR1L           equ	4065	;# 
   368   000FE2                     FSR1H           equ	4066	;# 
   369   000FE3                     PLUSW1          equ	4067	;# 
   370   000FE4                     PREINC1         equ	4068	;# 
   371   000FE5                     POSTDEC1        equ	4069	;# 
   372   000FE6                     POSTINC1        equ	4070	;# 
   373   000FE7                     INDF1           equ	4071	;# 
   374   000FE8                     WREG            equ	4072	;# 
   375   000FE9                     FSR0            equ	4073	;# 
   376   000FE9                     FSR0L           equ	4073	;# 
   377   000FEA                     FSR0H           equ	4074	;# 
   378   000FEB                     PLUSW0          equ	4075	;# 
   379   000FEC                     PREINC0         equ	4076	;# 
   380   000FED                     POSTDEC0        equ	4077	;# 
   381   000FEE                     POSTINC0        equ	4078	;# 
   382   000FEF                     INDF0           equ	4079	;# 
   383   000FF0                     INTCON3         equ	4080	;# 
   384   000FF1                     INTCON2         equ	4081	;# 
   385   000FF2                     INTCON          equ	4082	;# 
   386   000FF3                     PROD            equ	4083	;# 
   387   000FF3                     PRODL           equ	4083	;# 
   388   000FF4                     PRODH           equ	4084	;# 
   389   000FF5                     TABLAT          equ	4085	;# 
   390   000FF6                     TBLPTR          equ	4086	;# 
   391   000FF6                     TBLPTRL         equ	4086	;# 
   392   000FF7                     TBLPTRH         equ	4087	;# 
   393   000FF8                     TBLPTRU         equ	4088	;# 
   394   000FF9                     PCLAT           equ	4089	;# 
   395   000FF9                     PC              equ	4089	;# 
   396   000FF9                     PCL             equ	4089	;# 
   397   000FFA                     PCLATH          equ	4090	;# 
   398   000FFB                     PCLATU          equ	4091	;# 
   399   000FFC                     STKPTR          equ	4092	;# 
   400   000FFD                     TOS             equ	4093	;# 
   401   000FFD                     TOSL            equ	4093	;# 
   402   000FFE                     TOSH            equ	4094	;# 
   403   000FFF                     TOSU            equ	4095	;# 
   404   000F80                     PORTA           equ	3968	;# 
   405   000F81                     PORTB           equ	3969	;# 
   406   000F82                     PORTC           equ	3970	;# 
   407   000F83                     PORTD           equ	3971	;# 
   408   000F84                     PORTE           equ	3972	;# 
   409   000F89                     LATA            equ	3977	;# 
   410   000F8A                     LATB            equ	3978	;# 
   411   000F8B                     LATC            equ	3979	;# 
   412   000F8C                     LATD            equ	3980	;# 
   413   000F8D                     LATE            equ	3981	;# 
   414   000F92                     TRISA           equ	3986	;# 
   415   000F92                     DDRA            equ	3986	;# 
   416   000F93                     TRISB           equ	3987	;# 
   417   000F93                     DDRB            equ	3987	;# 
   418   000F94                     TRISC           equ	3988	;# 
   419   000F94                     DDRC            equ	3988	;# 
   420   000F95                     TRISD           equ	3989	;# 
   421   000F95                     DDRD            equ	3989	;# 
   422   000F96                     TRISE           equ	3990	;# 
   423   000F96                     DDRE            equ	3990	;# 
   424   000F9B                     OSCTUNE         equ	3995	;# 
   425   000F9D                     PIE1            equ	3997	;# 
   426   000F9E                     PIR1            equ	3998	;# 
   427   000F9F                     IPR1            equ	3999	;# 
   428   000FA0                     PIE2            equ	4000	;# 
   429   000FA1                     PIR2            equ	4001	;# 
   430   000FA2                     IPR2            equ	4002	;# 
   431   000FA6                     EECON1          equ	4006	;# 
   432   000FA7                     EECON2          equ	4007	;# 
   433   000FA8                     EEDATA          equ	4008	;# 
   434   000FA9                     EEADR           equ	4009	;# 
   435   000FAB                     RCSTA           equ	4011	;# 
   436   000FAB                     RCSTA1          equ	4011	;# 
   437   000FAC                     TXSTA           equ	4012	;# 
   438   000FAC                     TXSTA1          equ	4012	;# 
   439   000FAD                     TXREG           equ	4013	;# 
   440   000FAD                     TXREG1          equ	4013	;# 
   441   000FAE                     RCREG           equ	4014	;# 
   442   000FAE                     RCREG1          equ	4014	;# 
   443   000FAF                     SPBRG           equ	4015	;# 
   444   000FAF                     SPBRG1          equ	4015	;# 
   445   000FB0                     SPBRGH          equ	4016	;# 
   446   000FB1                     T3CON           equ	4017	;# 
   447   000FB2                     TMR3            equ	4018	;# 
   448   000FB2                     TMR3L           equ	4018	;# 
   449   000FB3                     TMR3H           equ	4019	;# 
   450   000FB4                     CMCON           equ	4020	;# 
   451   000FB5                     CVRCON          equ	4021	;# 
   452   000FB6                     ECCP1AS         equ	4022	;# 
   453   000FB6                     ECCPAS          equ	4022	;# 
   454   000FB7                     PWM1CON         equ	4023	;# 
   455   000FB7                     ECCP1DEL        equ	4023	;# 
   456   000FB8                     BAUDCON         equ	4024	;# 
   457   000FB8                     BAUDCTL         equ	4024	;# 
   458   000FBA                     CCP2CON         equ	4026	;# 
   459   000FBB                     CCPR2           equ	4027	;# 
   460   000FBB                     CCPR2L          equ	4027	;# 
   461   000FBC                     CCPR2H          equ	4028	;# 
   462   000FBD                     CCP1CON         equ	4029	;# 
   463   000FBE                     CCPR1           equ	4030	;# 
   464   000FBE                     CCPR1L          equ	4030	;# 
   465   000FBF                     CCPR1H          equ	4031	;# 
   466   000FC0                     ADCON2          equ	4032	;# 
   467   000FC1                     ADCON1          equ	4033	;# 
   468   000FC2                     ADCON0          equ	4034	;# 
   469   000FC3                     ADRES           equ	4035	;# 
   470   000FC3                     ADRESL          equ	4035	;# 
   471   000FC4                     ADRESH          equ	4036	;# 
   472   000FC5                     SSPCON2         equ	4037	;# 
   473   000FC6                     SSPCON1         equ	4038	;# 
   474   000FC7                     SSPSTAT         equ	4039	;# 
   475   000FC8                     SSPADD          equ	4040	;# 
   476   000FC9                     SSPBUF          equ	4041	;# 
   477   000FCA                     T2CON           equ	4042	;# 
   478   000FCB                     PR2             equ	4043	;# 
   479   000FCB                     MEMCON          equ	4043	;# 
   480   000FCC                     TMR2            equ	4044	;# 
   481   000FCD                     T1CON           equ	4045	;# 
   482   000FCE                     TMR1            equ	4046	;# 
   483   000FCE                     TMR1L           equ	4046	;# 
   484   000FCF                     TMR1H           equ	4047	;# 
   485   000FD0                     RCON            equ	4048	;# 
   486   000FD1                     WDTCON          equ	4049	;# 
   487   000FD2                     HLVDCON         equ	4050	;# 
   488   000FD2                     LVDCON          equ	4050	;# 
   489   000FD3                     OSCCON          equ	4051	;# 
   490   000FD5                     T0CON           equ	4053	;# 
   491   000FD6                     TMR0            equ	4054	;# 
   492   000FD6                     TMR0L           equ	4054	;# 
   493   000FD7                     TMR0H           equ	4055	;# 
   494   000FD8                     STATUS          equ	4056	;# 
   495   000FD9                     FSR2            equ	4057	;# 
   496   000FD9                     FSR2L           equ	4057	;# 
   497   000FDA                     FSR2H           equ	4058	;# 
   498   000FDB                     PLUSW2          equ	4059	;# 
   499   000FDC                     PREINC2         equ	4060	;# 
   500   000FDD                     POSTDEC2        equ	4061	;# 
   501   000FDE                     POSTINC2        equ	4062	;# 
   502   000FDF                     INDF2           equ	4063	;# 
   503   000FE0                     BSR             equ	4064	;# 
   504   000FE1                     FSR1            equ	4065	;# 
   505   000FE1                     FSR1L           equ	4065	;# 
   506   000FE2                     FSR1H           equ	4066	;# 
   507   000FE3                     PLUSW1          equ	4067	;# 
   508   000FE4                     PREINC1         equ	4068	;# 
   509   000FE5                     POSTDEC1        equ	4069	;# 
   510   000FE6                     POSTINC1        equ	4070	;# 
   511   000FE7                     INDF1           equ	4071	;# 
   512   000FE8                     WREG            equ	4072	;# 
   513   000FE9                     FSR0            equ	4073	;# 
   514   000FE9                     FSR0L           equ	4073	;# 
   515   000FEA                     FSR0H           equ	4074	;# 
   516   000FEB                     PLUSW0          equ	4075	;# 
   517   000FEC                     PREINC0         equ	4076	;# 
   518   000FED                     POSTDEC0        equ	4077	;# 
   519   000FEE                     POSTINC0        equ	4078	;# 
   520   000FEF                     INDF0           equ	4079	;# 
   521   000FF0                     INTCON3         equ	4080	;# 
   522   000FF1                     INTCON2         equ	4081	;# 
   523   000FF2                     INTCON          equ	4082	;# 
   524   000FF3                     PROD            equ	4083	;# 
   525   000FF3                     PRODL           equ	4083	;# 
   526   000FF4                     PRODH           equ	4084	;# 
   527   000FF5                     TABLAT          equ	4085	;# 
   528   000FF6                     TBLPTR          equ	4086	;# 
   529   000FF6                     TBLPTRL         equ	4086	;# 
   530   000FF7                     TBLPTRH         equ	4087	;# 
   531   000FF8                     TBLPTRU         equ	4088	;# 
   532   000FF9                     PCLAT           equ	4089	;# 
   533   000FF9                     PC              equ	4089	;# 
   534   000FF9                     PCL             equ	4089	;# 
   535   000FFA                     PCLATH          equ	4090	;# 
   536   000FFB                     PCLATU          equ	4091	;# 
   537   000FFC                     STKPTR          equ	4092	;# 
   538   000FFD                     TOS             equ	4093	;# 
   539   000FFD                     TOSL            equ	4093	;# 
   540   000FFE                     TOSH            equ	4094	;# 
   541   000FFF                     TOSU            equ	4095	;# 
   542   000F80                     PORTA           equ	3968	;# 
   543   000F81                     PORTB           equ	3969	;# 
   544   000F82                     PORTC           equ	3970	;# 
   545   000F83                     PORTD           equ	3971	;# 
   546   000F84                     PORTE           equ	3972	;# 
   547   000F89                     LATA            equ	3977	;# 
   548   000F8A                     LATB            equ	3978	;# 
   549   000F8B                     LATC            equ	3979	;# 
   550   000F8C                     LATD            equ	3980	;# 
   551   000F8D                     LATE            equ	3981	;# 
   552   000F92                     TRISA           equ	3986	;# 
   553   000F92                     DDRA            equ	3986	;# 
   554   000F93                     TRISB           equ	3987	;# 
   555   000F93                     DDRB            equ	3987	;# 
   556   000F94                     TRISC           equ	3988	;# 
   557   000F94                     DDRC            equ	3988	;# 
   558   000F95                     TRISD           equ	3989	;# 
   559   000F95                     DDRD            equ	3989	;# 
   560   000F96                     TRISE           equ	3990	;# 
   561   000F96                     DDRE            equ	3990	;# 
   562   000F9B                     OSCTUNE         equ	3995	;# 
   563   000F9D                     PIE1            equ	3997	;# 
   564   000F9E                     PIR1            equ	3998	;# 
   565   000F9F                     IPR1            equ	3999	;# 
   566   000FA0                     PIE2            equ	4000	;# 
   567   000FA1                     PIR2            equ	4001	;# 
   568   000FA2                     IPR2            equ	4002	;# 
   569   000FA6                     EECON1          equ	4006	;# 
   570   000FA7                     EECON2          equ	4007	;# 
   571   000FA8                     EEDATA          equ	4008	;# 
   572   000FA9                     EEADR           equ	4009	;# 
   573   000FAB                     RCSTA           equ	4011	;# 
   574   000FAB                     RCSTA1          equ	4011	;# 
   575   000FAC                     TXSTA           equ	4012	;# 
   576   000FAC                     TXSTA1          equ	4012	;# 
   577   000FAD                     TXREG           equ	4013	;# 
   578   000FAD                     TXREG1          equ	4013	;# 
   579   000FAE                     RCREG           equ	4014	;# 
   580   000FAE                     RCREG1          equ	4014	;# 
   581   000FAF                     SPBRG           equ	4015	;# 
   582   000FAF                     SPBRG1          equ	4015	;# 
   583   000FB0                     SPBRGH          equ	4016	;# 
   584   000FB1                     T3CON           equ	4017	;# 
   585   000FB2                     TMR3            equ	4018	;# 
   586   000FB2                     TMR3L           equ	4018	;# 
   587   000FB3                     TMR3H           equ	4019	;# 
   588   000FB4                     CMCON           equ	4020	;# 
   589   000FB5                     CVRCON          equ	4021	;# 
   590   000FB6                     ECCP1AS         equ	4022	;# 
   591   000FB6                     ECCPAS          equ	4022	;# 
   592   000FB7                     PWM1CON         equ	4023	;# 
   593   000FB7                     ECCP1DEL        equ	4023	;# 
   594   000FB8                     BAUDCON         equ	4024	;# 
   595   000FB8                     BAUDCTL         equ	4024	;# 
   596   000FBA                     CCP2CON         equ	4026	;# 
   597   000FBB                     CCPR2           equ	4027	;# 
   598   000FBB                     CCPR2L          equ	4027	;# 
   599   000FBC                     CCPR2H          equ	4028	;# 
   600   000FBD                     CCP1CON         equ	4029	;# 
   601   000FBE                     CCPR1           equ	4030	;# 
   602   000FBE                     CCPR1L          equ	4030	;# 
   603   000FBF                     CCPR1H          equ	4031	;# 
   604   000FC0                     ADCON2          equ	4032	;# 
   605   000FC1                     ADCON1          equ	4033	;# 
   606   000FC2                     ADCON0          equ	4034	;# 
   607   000FC3                     ADRES           equ	4035	;# 
   608   000FC3                     ADRESL          equ	4035	;# 
   609   000FC4                     ADRESH          equ	4036	;# 
   610   000FC5                     SSPCON2         equ	4037	;# 
   611   000FC6                     SSPCON1         equ	4038	;# 
   612   000FC7                     SSPSTAT         equ	4039	;# 
   613   000FC8                     SSPADD          equ	4040	;# 
   614   000FC9                     SSPBUF          equ	4041	;# 
   615   000FCA                     T2CON           equ	4042	;# 
   616   000FCB                     PR2             equ	4043	;# 
   617   000FCB                     MEMCON          equ	4043	;# 
   618   000FCC                     TMR2            equ	4044	;# 
   619   000FCD                     T1CON           equ	4045	;# 
   620   000FCE                     TMR1            equ	4046	;# 
   621   000FCE                     TMR1L           equ	4046	;# 
   622   000FCF                     TMR1H           equ	4047	;# 
   623   000FD0                     RCON            equ	4048	;# 
   624   000FD1                     WDTCON          equ	4049	;# 
   625   000FD2                     HLVDCON         equ	4050	;# 
   626   000FD2                     LVDCON          equ	4050	;# 
   627   000FD3                     OSCCON          equ	4051	;# 
   628   000FD5                     T0CON           equ	4053	;# 
   629   000FD6                     TMR0            equ	4054	;# 
   630   000FD6                     TMR0L           equ	4054	;# 
   631   000FD7                     TMR0H           equ	4055	;# 
   632   000FD8                     STATUS          equ	4056	;# 
   633   000FD9                     FSR2            equ	4057	;# 
   634   000FD9                     FSR2L           equ	4057	;# 
   635   000FDA                     FSR2H           equ	4058	;# 
   636   000FDB                     PLUSW2          equ	4059	;# 
   637   000FDC                     PREINC2         equ	4060	;# 
   638   000FDD                     POSTDEC2        equ	4061	;# 
   639   000FDE                     POSTINC2        equ	4062	;# 
   640   000FDF                     INDF2           equ	4063	;# 
   641   000FE0                     BSR             equ	4064	;# 
   642   000FE1                     FSR1            equ	4065	;# 
   643   000FE1                     FSR1L           equ	4065	;# 
   644   000FE2                     FSR1H           equ	4066	;# 
   645   000FE3                     PLUSW1          equ	4067	;# 
   646   000FE4                     PREINC1         equ	4068	;# 
   647   000FE5                     POSTDEC1        equ	4069	;# 
   648   000FE6                     POSTINC1        equ	4070	;# 
   649   000FE7                     INDF1           equ	4071	;# 
   650   000FE8                     WREG            equ	4072	;# 
   651   000FE9                     FSR0            equ	4073	;# 
   652   000FE9                     FSR0L           equ	4073	;# 
   653   000FEA                     FSR0H           equ	4074	;# 
   654   000FEB                     PLUSW0          equ	4075	;# 
   655   000FEC                     PREINC0         equ	4076	;# 
   656   000FED                     POSTDEC0        equ	4077	;# 
   657   000FEE                     POSTINC0        equ	4078	;# 
   658   000FEF                     INDF0           equ	4079	;# 
   659   000FF0                     INTCON3         equ	4080	;# 
   660   000FF1                     INTCON2         equ	4081	;# 
   661   000FF2                     INTCON          equ	4082	;# 
   662   000FF3                     PROD            equ	4083	;# 
   663   000FF3                     PRODL           equ	4083	;# 
   664   000FF4                     PRODH           equ	4084	;# 
   665   000FF5                     TABLAT          equ	4085	;# 
   666   000FF6                     TBLPTR          equ	4086	;# 
   667   000FF6                     TBLPTRL         equ	4086	;# 
   668   000FF7                     TBLPTRH         equ	4087	;# 
   669   000FF8                     TBLPTRU         equ	4088	;# 
   670   000FF9                     PCLAT           equ	4089	;# 
   671   000FF9                     PC              equ	4089	;# 
   672   000FF9                     PCL             equ	4089	;# 
   673   000FFA                     PCLATH          equ	4090	;# 
   674   000FFB                     PCLATU          equ	4091	;# 
   675   000FFC                     STKPTR          equ	4092	;# 
   676   000FFD                     TOS             equ	4093	;# 
   677   000FFD                     TOSL            equ	4093	;# 
   678   000FFE                     TOSH            equ	4094	;# 
   679   000FFF                     TOSU            equ	4095	;# 
   680                           
   681                           	psect	idataBANK0
   682   0016FE                     __pidataBANK0:
   683                           	callstack 0
   684                           
   685                           ;initializer for _snake_len_rx
   686   0016FE  03                 	db	3
   687   000F8A                     _LATBbits       set	3978
   688   000F93                     _TRISBbits      set	3987
   689   000F94                     _TRISCbits      set	3988
   690   000F95                     _TRISDbits      set	3989
   691   000F8C                     _LATDbits       set	3980
   692   000FD0                     _RCONbits       set	4048
   693   000FC1                     _ADCON1         set	4033
   694   000FD3                     _OSCCONbits     set	4051
   695   000FAD                     _TXREG          set	4013
   696   000F9D                     _PIE1bits       set	3997
   697   000F9F                     _IPR1bits       set	3999
   698   000FAC                     _TXSTAbits      set	4012
   699   000FB8                     _BAUDCONbits    set	4024
   700   000FAF                     _SPBRG          set	4015
   701   000FB0                     _SPBRGH         set	4016
   702   000FAE                     _RCREG          set	4014
   703   000FAB                     _RCSTAbits      set	4011
   704   000F9E                     _PIR1bits       set	3998
   705   000FD5                     _T0CONbits      set	4053
   706   000FD6                     _TMR0L          set	4054
   707   000FD7                     _TMR0H          set	4055
   708   000FF1                     _INTCON2bits    set	4081
   709   000FF2                     _INTCONbits     set	4082
   710                           
   711                           	psect	smallconst
   712   000600                     __psmallconst:
   713                           	callstack 0
   714   000600  00                 	db	0
   715   000601                     STR_7:
   716   000601  41                 	db	65	;'A'
   717   000602  50                 	db	80	;'P'
   718   000603  50                 	db	80	;'P'
   719   000604  4C                 	db	76	;'L'
   720   000605  45                 	db	69	;'E'
   721   000606  20                 	db	32
   722   000607  78                 	db	120	;'x'
   723   000608  3D                 	db	61	;'='
   724   000609  25                 	db	37
   725   00060A  75                 	db	117	;'u'
   726   00060B  20                 	db	32
   727   00060C  79                 	db	121	;'y'
   728   00060D  3D                 	db	61	;'='
   729   00060E  25                 	db	37
   730   00060F  75                 	db	117	;'u'
   731   000610  0D                 	db	13
   732   000611  0A                 	db	10
   733   000612  00                 	db	0
   734   000613                     STR_8:
   735   000613  47                 	db	71	;'G'
   736   000614  41                 	db	65	;'A'
   737   000615  4D                 	db	77	;'M'
   738   000616  45                 	db	69	;'E'
   739   000617  20                 	db	32
   740   000618  4F                 	db	79	;'O'
   741   000619  56                 	db	86	;'V'
   742   00061A  45                 	db	69	;'E'
   743   00061B  52                 	db	82	;'R'
   744   00061C  0D                 	db	13
   745   00061D  0A                 	db	10
   746   00061E  00                 	db	0
   747   00061F                     STR_4:
   748   00061F  53                 	db	83	;'S'
   749   000620  54                 	db	84	;'T'
   750   000621  41                 	db	65	;'A'
   751   000622  54                 	db	84	;'T'
   752   000623  45                 	db	69	;'E'
   753   000624  20                 	db	32
   754   000625  31                 	db	49	;'1'
   755   000626  0D                 	db	13
   756   000627  0A                 	db	10
   757   000628  00                 	db	0
   758   000629                     STR_5:
   759   000629  53                 	db	83	;'S'
   760   00062A  54                 	db	84	;'T'
   761   00062B  41                 	db	65	;'A'
   762   00062C  54                 	db	84	;'T'
   763   00062D  45                 	db	69	;'E'
   764   00062E  20                 	db	32
   765   00062F  32                 	db	50	;'2'
   766   000630  0D                 	db	13
   767   000631  0A                 	db	10
   768   000632  00                 	db	0
   769   000633                     STR_6:
   770   000633  53                 	db	83	;'S'
   771   000634  54                 	db	84	;'T'
   772   000635  41                 	db	65	;'A'
   773   000636  54                 	db	84	;'T'
   774   000637  45                 	db	69	;'E'
   775   000638  20                 	db	32
   776   000639  33                 	db	51	;'3'
   777   00063A  0D                 	db	13
   778   00063B  0A                 	db	10
   779   00063C  00                 	db	0
   780   00063D                     STR_3:
   781   00063D  55                 	db	85	;'U'
   782   00063E  41                 	db	65	;'A'
   783   00063F  52                 	db	82	;'R'
   784   000640  54                 	db	84	;'T'
   785   000641  0D                 	db	13
   786   000642  0A                 	db	10
   787   000643  00                 	db	0
   788   000644                     STR_1:
   789   000644  54                 	db	84	;'T'
   790   000645  49                 	db	73	;'I'
   791   000646  4D                 	db	77	;'M'
   792   000647  45                 	db	69	;'E'
   793   000648  0D                 	db	13
   794   000649  0A                 	db	10
   795   00064A  00                 	db	0
   796   00064B                     STR_2:
   797   00064B  4D                 	db	77	;'M'
   798   00064C  41                 	db	65	;'A'
   799   00064D  49                 	db	73	;'I'
   800   00064E  4E                 	db	78	;'N'
   801   00064F  0D                 	db	13
   802   000650  0A                 	db	10
   803   000651  00                 	db	0
   804   000652  00                 	db	0	; dummy byte at the end
   805   000600                     __smallconst    set	__psmallconst
   806   000600                     __mediumconst   set	__psmallconst
   807   000002                     __activetblptr  equ	2
   808                           
   809                           ; #config settings
   810                           
   811                           	psect	cinit
   812   001460                     __pcinit:
   813                           	callstack 0
   814   001460                     start_initialization:
   815                           	callstack 0
   816   001460                     __initialization:
   817                           	callstack 0
   818                           
   819                           ; Initialize objects allocated to BANK0 (1 bytes)
   820                           ; load TBLPTR registers with __pidataBANK0
   821   001460  0EFE               	movlw	low __pidataBANK0
   822   001462  6EF6               	movwf	tblptrl,c
   823   001464  0E16               	movlw	high __pidataBANK0
   824   001466  6EF7               	movwf	tblptrh,c
   825   001468  0E00               	movlw	low (__pidataBANK0 shr (0+16))
   826   00146A  6EF8               	movwf	tblptru,c
   827   00146C  0009               	tblrd		*+	;fetch initializer
   828   00146E  CFF5 F0F9          	movff	tablat,__pdataBANK0
   829                           
   830                           ; Clear objects allocated to BANK1 (100 bytes)
   831   001472  EE01  F000         	lfsr	0,__pbssBANK1
   832   001476  0E64               	movlw	100
   833   001478                     clear_0:
   834   001478  6AEE               	clrf	postinc0,c
   835   00147A  06E8               	decf	wreg,f,c
   836   00147C  E1FD               	bnz	clear_0
   837                           
   838                           ; Clear objects allocated to BANK0 (70 bytes)
   839   00147E  EE00  F080         	lfsr	0,__pbssBANK0
   840   001482  0E46               	movlw	70
   841   001484                     clear_1:
   842   001484  6AEE               	clrf	postinc0,c
   843   001486  06E8               	decf	wreg,f,c
   844   001488  E1FD               	bnz	clear_1
   845                           
   846                           ; Clear objects allocated to COMRAM (13 bytes)
   847   00148A  EE00  F04D         	lfsr	0,__pbssCOMRAM
   848   00148E  0E0D               	movlw	13
   849   001490                     clear_2:
   850   001490  6AEE               	clrf	postinc0,c
   851   001492  06E8               	decf	wreg,f,c
   852   001494  E1FD               	bnz	clear_2
   853   001496                     end_of_initialization:
   854                           	callstack 0
   855   001496                     __end_of__initialization:
   856                           	callstack 0
   857   001496  905A               	bcf	int$flags,0,c	;clear compiler interrupt flag (level 1)
   858   001498  925A               	bcf	int$flags,1,c	;clear compiler interrupt flag (level 2)
   859   00149A  0E00               	movlw	low (__Lmediumconst shr (0+16))
   860   00149C  6EF8               	movwf	tblptru,c
   861   00149E  0100               	movlb	0
   862   0014A0  EF2A  F003         	goto	_main	;jump to C main() function
   863                           
   864                           	psect	bssCOMRAM
   865   00004D                     __pbssCOMRAM:
   866                           	callstack 0
   867   00004D                     _width:
   868                           	callstack 0
   869   00004D                     	ds	2
   870   00004F                     _prec:
   871                           	callstack 0
   872   00004F                     	ds	2
   873   000051                     _sec_counter:
   874                           	callstack 0
   875   000051                     	ds	2
   876   000053                     _flags:
   877                           	callstack 0
   878   000053                     	ds	1
   879   000054                     uart_rx_from_player@rx_index:
   880                           	callstack 0
   881   000054                     	ds	1
   882   000055                     uart_rx_from_player@rx_state:
   883                           	callstack 0
   884   000055                     	ds	1
   885   000056                     _seed:
   886                           	callstack 0
   887   000056                     	ds	4
   888                           
   889                           	psect	bssBANK0
   890   000080                     __pbssBANK0:
   891                           	callstack 0
   892   000080                     _dbuf:
   893                           	callstack 0
   894   000080                     	ds	32
   895   0000A0                     _uart_rx_idx:
   896                           	callstack 0
   897   0000A0                     	ds	1
   898   0000A1                     _uart_line_ready:
   899                           	callstack 0
   900   0000A1                     	ds	1
   901   0000A2                     _snake_updated:
   902                           	callstack 0
   903   0000A2                     	ds	1
   904   0000A3                     _is_game_over:
   905                           	callstack 0
   906   0000A3                     	ds	1
   907   0000A4                     _apple_eaten:
   908                           	callstack 0
   909   0000A4                     	ds	1
   910   0000A5                     _game_start:
   911                           	callstack 0
   912   0000A5                     	ds	1
   913   0000A6                     _uart_rx_buf:
   914                           	callstack 0
   915   0000A6                     	ds	32
   916                           
   917                           	psect	dataBANK0
   918   0000F9                     __pdataBANK0:
   919                           	callstack 0
   920   0000F9                     _snake_len_rx:
   921                           	callstack 0
   922   0000F9                     	ds	1
   923                           
   924                           	psect	bssBANK1
   925   000100                     __pbssBANK1:
   926                           	callstack 0
   927   000100                     _snake_y_rx:
   928                           	callstack 0
   929   000100                     	ds	50
   930   000132                     _snake_x_rx:
   931                           	callstack 0
   932   000132                     	ds	50
   933                           
   934                           	psect	cstackBANK1
   935   000164                     __pcstackBANK1:
   936                           	callstack 0
   937   000164                     main@prev_tail_y:
   938                           	callstack 0
   939                           
   940                           ; 1 bytes @ 0x0
   941   000164                     	ds	1
   942   000165                     main@seed:
   943                           	callstack 0
   944                           
   945                           ; 2 bytes @ 0x1
   946   000165                     	ds	2
   947   000167                     main@first_frame:
   948                           	callstack 0
   949                           
   950                           ; 1 bytes @ 0x3
   951   000167                     	ds	1
   952   000168                     main@i_413:
   953                           	callstack 0
   954                           
   955                           ; 1 bytes @ 0x4
   956   000168                     	ds	1
   957   000169                     main@i:
   958                           	callstack 0
   959                           
   960                           ; 2 bytes @ 0x5
   961   000169                     	ds	2
   962   00016B                     main@apple_x:
   963                           	callstack 0
   964                           
   965                           ; 1 bytes @ 0x7
   966   00016B                     	ds	1
   967   00016C                     main@apple_y:
   968                           	callstack 0
   969                           
   970                           ; 1 bytes @ 0x8
   971   00016C                     	ds	1
   972                           
   973                           	psect	cstackBANK0
   974   0000C6                     __pcstackBANK0:
   975                           	callstack 0
   976   0000C6                     ?_sprintf:
   977                           	callstack 0
   978   0000C6                     sprintf@s:
   979                           	callstack 0
   980                           
   981                           ; 1 bytes @ 0x0
   982   0000C6                     	ds	1
   983   0000C7                     sprintf@fmt:
   984                           	callstack 0
   985                           
   986                           ; 1 bytes @ 0x1
   987   0000C7                     	ds	5
   988   0000CC                     sprintf@ap:
   989                           	callstack 0
   990                           
   991                           ; 1 bytes @ 0x6
   992   0000CC                     	ds	1
   993   0000CD                     sprintf@f:
   994                           	callstack 0
   995                           
   996                           ; 11 bytes @ 0x7
   997   0000CD                     	ds	11
   998   0000D8                     send_apple_pos@buff:
   999                           	callstack 0
  1000   0000D8                     handle_game_over@buff:
  1001                           	callstack 0
  1002                           
  1003                           ; 32 bytes @ 0x12
  1004   0000D8                     	ds	32
  1005   0000F8                     send_apple_pos@x:
  1006                           	callstack 0
  1007                           
  1008                           ; 1 bytes @ 0x32
  1009   0000F8                     	ds	1
  1010                           
  1011                           	psect	cstackCOMRAM
  1012   000001                     __pcstackCOMRAM:
  1013                           	callstack 0
  1014   000001                     ?___xxtofl:
  1015                           	callstack 0
  1016   000001                     i2uart_send@c:
  1017                           	callstack 0
  1018   000001                     ___xxtofl@val:
  1019                           	callstack 0
  1020   000001                     
  1021                           ; 1 bytes @ 0x0
  1022   000001                     	ds	1
  1023   000002                     i2uart_send_array@c:
  1024                           	callstack 0
  1025                           
  1026                           ; 2 bytes @ 0x1
  1027   000002                     	ds	2
  1028   000004                     i2uart_send_array@len:
  1029                           	callstack 0
  1030                           
  1031                           ; 2 bytes @ 0x3
  1032   000004                     	ds	1
  1033   000005                     ??___xxtofl:
  1034                           
  1035                           ; 1 bytes @ 0x4
  1036   000005                     	ds	1
  1037   000006                     ??i2_uart_send_array:
  1038                           
  1039                           ; 1 bytes @ 0x5
  1040   000006                     	ds	2
  1041   000008                     i2uart_send_array@i:
  1042                           	callstack 0
  1043                           
  1044                           ; 1 bytes @ 0x7
  1045   000008                     	ds	1
  1046   000009                     ___xxtofl@sign:
  1047                           	callstack 0
  1048                           
  1049                           ; 1 bytes @ 0x8
  1050   000009                     	ds	1
  1051   00000A                     ___xxtofl@exp:
  1052                           	callstack 0
  1053                           
  1054                           ; 1 bytes @ 0x9
  1055   00000A                     	ds	1
  1056   00000B                     ___xxtofl@arg:
  1057                           	callstack 0
  1058                           
  1059                           ; 4 bytes @ 0xA
  1060   00000B                     	ds	4
  1061   00000F                     ___flge@ff1:
  1062                           	callstack 0
  1063                           
  1064                           ; 4 bytes @ 0xE
  1065   00000F                     	ds	4
  1066   000013                     ___flge@ff2:
  1067                           	callstack 0
  1068                           
  1069                           ; 4 bytes @ 0x12
  1070   000013                     	ds	4
  1071   000017                     ??___flge:
  1072                           
  1073                           ; 1 bytes @ 0x16
  1074   000017                     	ds	4
  1075   00001B                     ??_high_isr:
  1076                           
  1077                           ; 1 bytes @ 0x1A
  1078   00001B                     	ds	8
  1079   000023                     high_isr@c:
  1080                           	callstack 0
  1081                           
  1082                           ; 1 bytes @ 0x22
  1083   000023                     	ds	1
  1084   000024                     ??_low_isr:
  1085                           
  1086                           ; 1 bytes @ 0x23
  1087   000024                     	ds	1
  1088   000025                     ?_strlen:
  1089                           	callstack 0
  1090   000025                     ?___awdiv:
  1091                           	callstack 0
  1092   000025                     ?___lwdiv:
  1093                           	callstack 0
  1094   000025                     ?___lmul:
  1095                           	callstack 0
  1096   000025                     uart_send@c:
  1097                           	callstack 0
  1098   000025                     strlen@s:
  1099                           	callstack 0
  1100   000025                     uart_init@gen_reg:
  1101                           	callstack 0
  1102   000025                     ___awdiv@dividend:
  1103                           	callstack 0
  1104   000025                     ___lwdiv@dividend:
  1105                           	callstack 0
  1106   000025                     memset@dest:
  1107                           	callstack 0
  1108   000025                     fputc@c:
  1109                           	callstack 0
  1110   000025                     srand@s:
  1111                           	callstack 0
  1112   000025                     ___lmul@multiplier:
  1113                           	callstack 0
  1114   000025                     
  1115                           ; 1 bytes @ 0x24
  1116   000025                     	ds	2
  1117   000027                     fputc@fp:
  1118                           	callstack 0
  1119   000027                     strlen@a:
  1120                           	callstack 0
  1121   000027                     uart_init@sync:
  1122                           	callstack 0
  1123   000027                     ___awdiv@divisor:
  1124                           	callstack 0
  1125   000027                     ___lwdiv@divisor:
  1126                           	callstack 0
  1127   000027                     memset@c:
  1128                           	callstack 0
  1129   000027                     ??_srand:
  1130   000027                     
  1131                           ; 1 bytes @ 0x26
  1132   000027                     	ds	1
  1133   000028                     uart_send_array@c:
  1134                           	callstack 0
  1135   000028                     ??_fputc:
  1136                           
  1137                           ; 1 bytes @ 0x27
  1138   000028                     	ds	1
  1139   000029                     ___awdiv@counter:
  1140                           	callstack 0
  1141   000029                     ___lwdiv@counter:
  1142                           	callstack 0
  1143   000029                     uart_init@brgh:
  1144                           	callstack 0
  1145   000029                     memset@n:
  1146                           	callstack 0
  1147   000029                     ___lmul@multiplicand:
  1148                           	callstack 0
  1149   000029                     
  1150                           ; 1 bytes @ 0x28
  1151   000029                     	ds	1
  1152   00002A                     ___awdiv@sign:
  1153                           	callstack 0
  1154   00002A                     uart_send_array@len:
  1155                           	callstack 0
  1156   00002A                     ___lwdiv@quotient:
  1157                           	callstack 0
  1158                           
  1159                           ; 2 bytes @ 0x29
  1160   00002A                     	ds	1
  1161   00002B                     uart_init@brg16:
  1162                           	callstack 0
  1163   00002B                     ___awdiv@quotient:
  1164                           	callstack 0
  1165   00002B                     memset@p:
  1166                           	callstack 0
  1167   00002B                     
  1168                           ; 1 bytes @ 0x2A
  1169   00002B                     	ds	1
  1170   00002C                     ??_uart_send_array:
  1171                           
  1172                           ; 1 bytes @ 0x2B
  1173   00002C                     	ds	1
  1174   00002D                     ___lmul@product:
  1175                           	callstack 0
  1176   00002D                     
  1177                           ; 1 bytes @ 0x2C
  1178   00002D                     	ds	1
  1179   00002E                     uart_send_array@i:
  1180                           	callstack 0
  1181                           
  1182                           ; 1 bytes @ 0x2D
  1183   00002E                     	ds	1
  1184   00002F                     ??_uart_rx_from_player:
  1185                           
  1186                           ; 1 bytes @ 0x2E
  1187   00002F                     	ds	2
  1188   000031                     ?_rand:
  1189                           	callstack 0
  1190                           
  1191                           ; 2 bytes @ 0x30
  1192   000031                     	ds	1
  1193   000032                     uart_rx_from_player@c:
  1194                           	callstack 0
  1195                           
  1196                           ; 1 bytes @ 0x31
  1197   000032                     	ds	1
  1198   000033                     feed_snake_packet@pos:
  1199                           	callstack 0
  1200   000033                     ??_rand:
  1201                           
  1202                           ; 1 bytes @ 0x32
  1203   000033                     	ds	1
  1204   000034                     feed_snake_packet@flag:
  1205                           	callstack 0
  1206                           
  1207                           ; 1 bytes @ 0x33
  1208   000034                     	ds	1
  1209   000035                     feed_snake_packet@i:
  1210                           	callstack 0
  1211   000035                     
  1212                           ; 1 bytes @ 0x34
  1213   000035                     	ds	2
  1214   000037                     ?___lwmod:
  1215                           	callstack 0
  1216   000037                     parse_command_from_pc@line:
  1217                           	callstack 0
  1218   000037                     ___lwmod@dividend:
  1219                           	callstack 0
  1220                           
  1221                           ; 2 bytes @ 0x36
  1222   000037                     	ds	1
  1223   000038                     
  1224                           ; 1 bytes @ 0x37
  1225   000038                     	ds	1
  1226   000039                     ___lwmod@divisor:
  1227                           	callstack 0
  1228   000039                     parse_command_from_pc@pos:
  1229                           	callstack 0
  1230                           
  1231                           ; 6 bytes @ 0x38
  1232   000039                     	ds	2
  1233   00003B                     ___lwmod@counter:
  1234                           	callstack 0
  1235   00003B                     
  1236                           ; 1 bytes @ 0x3A
  1237   00003B                     	ds	1
  1238   00003C                     vfpfcnvrt@fp:
  1239                           	callstack 0
  1240   00003C                     generate_apple@x:
  1241                           	callstack 0
  1242                           
  1243                           ; 2 bytes @ 0x3B
  1244   00003C                     	ds	1
  1245   00003D                     vfpfcnvrt@fmt:
  1246                           	callstack 0
  1247                           
  1248                           ; 1 bytes @ 0x3C
  1249   00003D                     	ds	1
  1250   00003E                     vfpfcnvrt@ap:
  1251                           	callstack 0
  1252   00003E                     generate_apple@y:
  1253                           	callstack 0
  1254                           
  1255                           ; 2 bytes @ 0x3D
  1256   00003E                     	ds	1
  1257   00003F                     parse_command_from_pc@flag:
  1258                           	callstack 0
  1259   00003F                     ??_vfpfcnvrt:
  1260                           
  1261                           ; 1 bytes @ 0x3E
  1262   00003F                     	ds	1
  1263   000040                     parse_command_from_pc@idx:
  1264                           	callstack 0
  1265   000040                     generate_apple@max_y:
  1266                           	callstack 0
  1267   000040                     vfpfcnvrt@convarg:
  1268                           	callstack 0
  1269   000040                     
  1270                           ; 1 bytes @ 0x3F
  1271   000040                     	ds	1
  1272   000041                     parse_command_from_pc@i:
  1273                           	callstack 0
  1274                           
  1275                           ; 2 bytes @ 0x40
  1276   000041                     	ds	3
  1277   000044                     vfpfcnvrt@cp:
  1278                           	callstack 0
  1279                           
  1280                           ; 1 bytes @ 0x43
  1281   000044                     	ds	1
  1282   000045                     vfpfcnvrt@c:
  1283                           	callstack 0
  1284                           
  1285                           ; 1 bytes @ 0x44
  1286   000045                     	ds	1
  1287   000046                     ?_vfprintf:
  1288                           	callstack 0
  1289   000046                     vfprintf@fp:
  1290                           	callstack 0
  1291                           
  1292                           ; 1 bytes @ 0x45
  1293   000046                     	ds	1
  1294   000047                     vfprintf@fmt:
  1295                           	callstack 0
  1296                           
  1297                           ; 1 bytes @ 0x46
  1298   000047                     	ds	1
  1299   000048                     vfprintf@ap:
  1300                           	callstack 0
  1301                           
  1302                           ; 1 bytes @ 0x47
  1303   000048                     	ds	1
  1304   000049                     vfprintf@cfmt:
  1305                           	callstack 0
  1306   000049                     
  1307                           ; 1 bytes @ 0x48
  1308   000049                     	ds	1
  1309   00004A                     send_apple_pos@y:
  1310                           	callstack 0
  1311   00004A                     
  1312                           ; 1 bytes @ 0x49
  1313   00004A                     	ds	1
  1314   00004B                     ??_main:
  1315                           
  1316                           ; 1 bytes @ 0x4A
  1317   00004B                     	ds	2
  1318                           
  1319 ;;
  1320 ;;Main: autosize = 0, tempsize = 2, incstack = 0, save=0
  1321 ;;
  1322 ;; *************** function _main *****************
  1323 ;; Defined at:
  1324 ;;		line 85 in file "main.c"
  1325 ;; Parameters:    Size  Location     Type
  1326 ;;		None
  1327 ;; Auto vars:     Size  Location     Type
  1328 ;;  i               1    4[BANK1 ] unsigned char 
  1329 ;;  i               2    5[BANK1 ] int 
  1330 ;;  seed            2    1[BANK1 ] unsigned short 
  1331 ;;  apple_y         1    8[BANK1 ] unsigned char 
  1332 ;;  apple_x         1    7[BANK1 ] unsigned char 
  1333 ;;  first_frame     1    3[BANK1 ] _Bool 
  1334 ;;  prev_tail_y     1    0[BANK1 ] unsigned char 
  1335 ;;  prev_tail_x     1    0        unsigned char 
  1336 ;; Return value:  Size  Location     Type
  1337 ;;                  1    wreg      void 
  1338 ;; Registers used:
  1339 ;;		wreg, fsr1l, fsr1h, fsr2l, fsr2h, status,2, status,0, tblptrl, tblptrh, tblptru, prodl, prodh, cstack
  1340 ;; Tracked objects:
  1341 ;;		On entry : 0/0
  1342 ;;		On exit  : 0/0
  1343 ;;		Unchanged: 0/0
  1344 ;; Data sizes:     COMRAM   BANK0   BANK1   BANK2   BANK3   BANK4   BANK5
  1345 ;;      Params:         0       0       0       0       0       0       0
  1346 ;;      Locals:         0       0       9       0       0       0       0
  1347 ;;      Temps:          2       0       0       0       0       0       0
  1348 ;;      Totals:         2       0       9       0       0       0       0
  1349 ;;Total ram usage:       11 bytes
  1350 ;; Hardware stack levels required when called: 10
  1351 ;; This function calls:
  1352 ;;		_generate_apple
  1353 ;;		_handle_game_over
  1354 ;;		_parse_command_from_pc
  1355 ;;		_send_apple_pos
  1356 ;;		_srand
  1357 ;;		_system_init
  1358 ;;		_timer0_init
  1359 ;;		_uart_init
  1360 ;;		_uart_send_array
  1361 ;; This function is called by:
  1362 ;;		Startup code after reset
  1363 ;; This function uses a non-reentrant model
  1364 ;;
  1365                           
  1366                           	psect	text0
  1367   000654                     __ptext0:
  1368                           	callstack 0
  1369   000654                     _main:
  1370                           	callstack 21
  1371   000654  0101               	movlb	1	; () banked
  1372   000656  6B64               	clrf	main@prev_tail_y& (0+255),b
  1373                           
  1374                           ;main.c: 88:     uint8_t apple_x = 0, apple_y = 0;
  1375   000658  6B6B               	clrf	main@apple_x& (0+255),b
  1376   00065A  6B6C               	clrf	main@apple_y& (0+255),b
  1377   00065C                     
  1378                           ; BSR set to: 1
  1379                           ;main.c: 89:     _Bool first_frame = 1;
  1380   00065C  0E01               	movlw	1
  1381   00065E  6F67               	movwf	main@first_frame& (0+255),b
  1382   000660                     
  1383                           ; BSR set to: 1
  1384                           ;main.c: 91:     system_init();
  1385   000660  EC1B  F00B         	call	_system_init	;wreg free
  1386   000664                     
  1387                           ;main.c: 93:     uart_init(51,0,1,0);
  1388   000664  0E00               	movlw	0
  1389   000666  6E26               	movwf	(uart_init@gen_reg+1)^0,c
  1390   000668  0E33               	movlw	51
  1391   00066A  6E25               	movwf	uart_init@gen_reg^0,c
  1392   00066C  0E00               	movlw	0
  1393   00066E  6E28               	movwf	(uart_init@sync+1)^0,c
  1394   000670  0E00               	movlw	0
  1395   000672  6E27               	movwf	uart_init@sync^0,c
  1396   000674  0E00               	movlw	0
  1397   000676  6E2A               	movwf	(uart_init@brgh+1)^0,c
  1398   000678  0E01               	movlw	1
  1399   00067A  6E29               	movwf	uart_init@brgh^0,c
  1400   00067C  0E00               	movlw	0
  1401   00067E  6E2C               	movwf	(uart_init@brg16+1)^0,c
  1402   000680  0E00               	movlw	0
  1403   000682  6E2B               	movwf	uart_init@brg16^0,c
  1404   000684  ECB0  F00A         	call	_uart_init	;wreg free
  1405   000688                     
  1406                           ;main.c: 94:     timer0_init();
  1407   000688  EC46  F00B         	call	_timer0_init	;wreg free
  1408   00068C                     
  1409                           ;main.c: 95:     _delay((unsigned long)((200)*(8000000/4000.0)));
  1410   00068C  0E03               	movlw	3
  1411   00068E  6E4C               	movwf	(??_main+1)^0,c
  1412   000690  0E08               	movlw	8
  1413   000692  6E4B               	movwf	??_main^0,c
  1414   000694  0E77               	movlw	119
  1415   000696                     u2067:
  1416   000696  2EE8               	decfsz	wreg,f,c
  1417   000698  D7FE               	bra	u2067
  1418   00069A  2E4B               	decfsz	??_main^0,f,c
  1419   00069C  D7FC               	bra	u2067
  1420   00069E  2E4C               	decfsz	(??_main+1)^0,f,c
  1421   0006A0  D7FA               	bra	u2067
  1422   0006A2  0000               	nop	
  1423   0006A4                     
  1424                           ;main.c: 97:     TRISDbits.RD4 = 0;
  1425   0006A4  9895               	bcf	149,4,c	;volatile
  1426   0006A6                     
  1427                           ;main.c: 98:     LATDbits.LATD4 = 1;
  1428   0006A6  888C               	bsf	140,4,c	;volatile
  1429   0006A8                     l2596:
  1430   0006A8  0100               	movlb	0	; () banked
  1431   0006AA  51A5               	movf	_game_start& (0+255),w,b	;volatile
  1432   0006AC  B4D8               	btfsc	status,2,c
  1433   0006AE  EF5B  F003         	goto	u1981
  1434   0006B2  EF5D  F003         	goto	u1980
  1435   0006B6                     u1981:
  1436   0006B6  EF54  F003         	goto	l2596
  1437   0006BA                     u1980:
  1438   0006BA                     
  1439                           ; BSR set to: 0
  1440                           ;main.c: 100:     LATDbits.LATD4 = 0;
  1441   0006BA  988C               	bcf	140,4,c	;volatile
  1442                           
  1443                           ;main.c: 101:     T0CONbits.TMR0ON = 1;
  1444   0006BC  8ED5               	bsf	213,7,c	;volatile
  1445   0006BE                     
  1446                           ; BSR set to: 0
  1447                           ;main.c: 103:     uint16_t seed = (TMR0H << 8) | TMR0L;
  1448   0006BE  50D6               	movf	214,w,c	;volatile
  1449   0006C0  CFD7 F04B          	movff	4055,??_main	;volatile
  1450   0006C4  6A4C               	clrf	(??_main+1)^0,c
  1451   0006C6  C04B  F04C         	movff	??_main,??_main+1
  1452   0006CA  6A4B               	clrf	??_main^0,c
  1453   0006CC  104B               	iorwf	??_main^0,w,c
  1454   0006CE  0101               	movlb	1	; () banked
  1455   0006D0  6F65               	movwf	main@seed& (0+255),b
  1456   0006D2  504C               	movf	(??_main+1)^0,w,c
  1457   0006D4  6F66               	movwf	(main@seed+1)& (0+255),b
  1458   0006D6                     
  1459                           ; BSR set to: 1
  1460                           ;main.c: 104:     srand(seed);
  1461   0006D6  C165  F025         	movff	main@seed,srand@s
  1462   0006DA  C166  F026         	movff	main@seed+1,srand@s+1
  1463   0006DE  EC71  F00B         	call	_srand	;wreg free
  1464   0006E2                     
  1465                           ;main.c: 106:     generate_apple(&apple_x, &apple_y);
  1466   0006E2  0E6B               	movlw	low main@apple_x
  1467   0006E4  6E3C               	movwf	generate_apple@x^0,c
  1468   0006E6  0E01               	movlw	high main@apple_x
  1469   0006E8  6E3D               	movwf	(generate_apple@x+1)^0,c
  1470   0006EA  0E6C               	movlw	low main@apple_y
  1471   0006EC  6E3E               	movwf	generate_apple@y^0,c
  1472   0006EE  0E01               	movlw	high main@apple_y
  1473   0006F0  6E3F               	movwf	(generate_apple@y+1)^0,c
  1474   0006F2  EC07  F00A         	call	_generate_apple	;wreg free
  1475   0006F6                     
  1476                           ;main.c: 107:     send_apple_pos(apple_x, apple_y);
  1477   0006F6  C16C  F04A         	movff	main@apple_y,send_apple_pos@y
  1478   0006FA  0101               	movlb	1	; () banked
  1479   0006FC  516B               	movf	main@apple_x& (0+255),w,b
  1480   0006FE  EC93  F00A         	call	_send_apple_pos
  1481   000702                     l2606:
  1482                           
  1483                           ;main.c: 111:         if(uart_line_ready) {
  1484   000702  0100               	movlb	0	; () banked
  1485   000704  51A1               	movf	_uart_line_ready& (0+255),w,b	;volatile
  1486   000706  B4D8               	btfsc	status,2,c
  1487   000708  EF88  F003         	goto	u1991
  1488   00070C  EF8A  F003         	goto	u1990
  1489   000710                     u1991:
  1490   000710  EFAC  F003         	goto	l2624
  1491   000714                     u1990:
  1492   000714                     
  1493                           ; BSR set to: 0
  1494                           ;main.c: 112:             parse_command_from_pc(uart_rx_buf);
  1495   000714  0EA6               	movlw	low _uart_rx_buf
  1496   000716  6E37               	movwf	parse_command_from_pc@line^0,c
  1497   000718  ECC3  F007         	call	_parse_command_from_pc	;wreg free
  1498   00071C                     
  1499                           ;main.c: 113:             uart_line_ready = 0;
  1500   00071C  0100               	movlb	0	; () banked
  1501   00071E  6BA1               	clrf	_uart_line_ready& (0+255),b	;volatile
  1502   000720                     
  1503                           ; BSR set to: 0
  1504                           ;main.c: 114:             for(int i = 0; i < 32 ; i++)
  1505   000720  0E00               	movlw	0
  1506   000722  0101               	movlb	1	; () banked
  1507   000724  6F6A               	movwf	(main@i+1)& (0+255),b
  1508   000726  0E00               	movlw	0
  1509   000728  6F69               	movwf	main@i& (0+255),b
  1510   00072A                     l2618:
  1511                           
  1512                           ; BSR set to: 1
  1513                           ;main.c: 115:                uart_rx_buf[i] = '\0';
  1514   00072A  5169               	movf	main@i& (0+255),w,b
  1515   00072C  0FA6               	addlw	low _uart_rx_buf
  1516   00072E  6ED9               	movwf	fsr2l,c
  1517   000730  6ADA               	clrf	fsr2h,c
  1518   000732  6ADF               	clrf	indf2,c
  1519   000734                     
  1520                           ; BSR set to: 1
  1521   000734  4B69               	infsnz	main@i& (0+255),f,b
  1522   000736  2B6A               	incf	(main@i+1)& (0+255),f,b
  1523   000738                     
  1524                           ; BSR set to: 1
  1525   000738  BF6A               	btfsc	(main@i+1)& (0+255),7,b
  1526   00073A  EFA8  F003         	goto	u2001
  1527   00073E  516A               	movf	(main@i+1)& (0+255),w,b
  1528   000740  E109               	bnz	u2000
  1529   000742  0E20               	movlw	32
  1530   000744  5D69               	subwf	main@i& (0+255),w,b
  1531   000746  A0D8               	btfss	status,0,c
  1532   000748  EFA8  F003         	goto	u2001
  1533   00074C  EFAA  F003         	goto	u2000
  1534   000750                     u2001:
  1535   000750  EF95  F003         	goto	l2618
  1536   000754                     u2000:
  1537   000754                     
  1538                           ; BSR set to: 1
  1539                           ;main.c: 116:             uart_rx_idx = 0;
  1540   000754  0100               	movlb	0	; () banked
  1541   000756  6BA0               	clrf	_uart_rx_idx& (0+255),b	;volatile
  1542   000758                     l2624:
  1543                           
  1544                           ; BSR set to: 0
  1545                           ;main.c: 118:         if(snake_updated) {
  1546   000758  51A2               	movf	_snake_updated& (0+255),w,b	;volatile
  1547   00075A  B4D8               	btfsc	status,2,c
  1548   00075C  EFB2  F003         	goto	u2011
  1549   000760  EFB4  F003         	goto	u2010
  1550   000764                     u2011:
  1551   000764  EFEC  F003         	goto	l2642
  1552   000768                     u2010:
  1553   000768                     
  1554                           ; BSR set to: 0
  1555                           ;main.c: 119:             if (first_frame) {
  1556   000768  0101               	movlb	1	; () banked
  1557   00076A  5167               	movf	main@first_frame& (0+255),w,b
  1558   00076C  B4D8               	btfsc	status,2,c
  1559   00076E  EFBB  F003         	goto	u2021
  1560   000772  EFBD  F003         	goto	u2020
  1561   000776                     u2021:
  1562   000776  EFDD  F003         	goto	l2638
  1563   00077A                     u2020:
  1564   00077A                     
  1565                           ; BSR set to: 1
  1566                           ;main.c: 121:                 for (uint8_t i = 0; i < snake_len_rx; i++) {
  1567   00077A  6B68               	clrf	main@i_413& (0+255),b
  1568   00077C  EFC1  F003         	goto	l2632
  1569   000780                     l2630:
  1570                           
  1571                           ; BSR set to: 1
  1572                           ;main.c: 123:                 }
  1573   000780  2B68               	incf	main@i_413& (0+255),f,b
  1574   000782                     l2632:
  1575                           
  1576                           ; BSR set to: 1
  1577   000782  0100               	movlb	0	; () banked
  1578   000784  51F9               	movf	_snake_len_rx& (0+255),w,b	;volatile
  1579   000786  0101               	movlb	1	; () banked
  1580   000788  5D68               	subwf	main@i_413& (0+255),w,b
  1581   00078A  A0D8               	btfss	status,0,c
  1582   00078C  EFCA  F003         	goto	u2031
  1583   000790  EFCC  F003         	goto	u2030
  1584   000794                     u2031:
  1585   000794  EFC0  F003         	goto	l2630
  1586   000798                     u2030:
  1587   000798                     
  1588                           ; BSR set to: 1
  1589   000798  0E31               	movlw	low (_snake_x_rx+65535)
  1590   00079A  0100               	movlb	0	; () banked
  1591   00079C  25F9               	addwf	_snake_len_rx& (0+255),w,b	;volatile
  1592   00079E  6ED9               	movwf	fsr2l,c
  1593   0007A0  6ADA               	clrf	fsr2h,c
  1594   0007A2  0E01               	movlw	high (_snake_x_rx+65535)
  1595   0007A4  22DA               	addwfc	fsr2h,f,c
  1596   0007A6  0EFF               	movlw	low (_snake_y_rx+65535)
  1597   0007A8  25F9               	addwf	_snake_len_rx& (0+255),w,b	;volatile
  1598   0007AA  6ED9               	movwf	fsr2l,c
  1599   0007AC  6ADA               	clrf	fsr2h,c
  1600   0007AE  0E00               	movlw	high (_snake_y_rx+65535)
  1601   0007B0  22DA               	addwfc	fsr2h,f,c
  1602   0007B2                     
  1603                           ; BSR set to: 0
  1604                           ;main.c: 127:                 first_frame = 0;
  1605   0007B2  0101               	movlb	1	; () banked
  1606   0007B4  6B67               	clrf	main@first_frame& (0+255),b
  1607                           
  1608                           ;main.c: 128:             }
  1609   0007B6  EFEA  F003         	goto	l2640
  1610   0007BA                     l2638:
  1611                           
  1612                           ; BSR set to: 1
  1613   0007BA  0E31               	movlw	low (_snake_x_rx+65535)
  1614   0007BC  0100               	movlb	0	; () banked
  1615   0007BE  25F9               	addwf	_snake_len_rx& (0+255),w,b	;volatile
  1616   0007C0  6ED9               	movwf	fsr2l,c
  1617   0007C2  6ADA               	clrf	fsr2h,c
  1618   0007C4  0E01               	movlw	high (_snake_x_rx+65535)
  1619   0007C6  22DA               	addwfc	fsr2h,f,c
  1620   0007C8  0EFF               	movlw	low (_snake_y_rx+65535)
  1621   0007CA  25F9               	addwf	_snake_len_rx& (0+255),w,b	;volatile
  1622   0007CC  6ED9               	movwf	fsr2l,c
  1623   0007CE  6ADA               	clrf	fsr2h,c
  1624   0007D0  0E00               	movlw	high (_snake_y_rx+65535)
  1625   0007D2  22DA               	addwfc	fsr2h,f,c
  1626   0007D4                     l2640:
  1627                           
  1628                           ;main.c: 137:             snake_updated = 0;
  1629   0007D4  0100               	movlb	0	; () banked
  1630   0007D6  6BA2               	clrf	_snake_updated& (0+255),b	;volatile
  1631   0007D8                     l2642:
  1632                           
  1633                           ; BSR set to: 0
  1634                           ;main.c: 140:         if(apple_eaten) {
  1635   0007D8  51A4               	movf	_apple_eaten& (0+255),w,b	;volatile
  1636   0007DA  B4D8               	btfsc	status,2,c
  1637   0007DC  EFF2  F003         	goto	u2041
  1638   0007E0  EFF4  F003         	goto	u2040
  1639   0007E4                     u2041:
  1640   0007E4  EF06  F004         	goto	l2650
  1641   0007E8                     u2040:
  1642   0007E8                     
  1643                           ; BSR set to: 0
  1644                           ;main.c: 143:             generate_apple(&apple_x, &apple_y);
  1645   0007E8  0E6B               	movlw	low main@apple_x
  1646   0007EA  6E3C               	movwf	generate_apple@x^0,c
  1647   0007EC  0E01               	movlw	high main@apple_x
  1648   0007EE  6E3D               	movwf	(generate_apple@x+1)^0,c
  1649   0007F0  0E6C               	movlw	low main@apple_y
  1650   0007F2  6E3E               	movwf	generate_apple@y^0,c
  1651   0007F4  0E01               	movlw	high main@apple_y
  1652   0007F6  6E3F               	movwf	(generate_apple@y+1)^0,c
  1653   0007F8  EC07  F00A         	call	_generate_apple	;wreg free
  1654   0007FC                     
  1655                           ;main.c: 144:             send_apple_pos(apple_x, apple_y);
  1656   0007FC  C16C  F04A         	movff	main@apple_y,send_apple_pos@y
  1657   000800  0101               	movlb	1	; () banked
  1658   000802  516B               	movf	main@apple_x& (0+255),w,b
  1659   000804  EC93  F00A         	call	_send_apple_pos
  1660   000808                     
  1661                           ;main.c: 147:             apple_eaten = 0;
  1662   000808  0100               	movlb	0	; () banked
  1663   00080A  6BA4               	clrf	_apple_eaten& (0+255),b	;volatile
  1664   00080C                     l2650:
  1665                           
  1666                           ; BSR set to: 0
  1667                           ;main.c: 150:         if(is_game_over) {
  1668   00080C  51A3               	movf	_is_game_over& (0+255),w,b	;volatile
  1669   00080E  B4D8               	btfsc	status,2,c
  1670   000810  EF0C  F004         	goto	u2051
  1671   000814  EF0E  F004         	goto	u2050
  1672   000818                     u2051:
  1673   000818  EF81  F003         	goto	l2606
  1674   00081C                     u2050:
  1675   00081C                     
  1676                           ; BSR set to: 0
  1677                           ;main.c: 151:             uart_send_array("MAIN\r\n", 6);
  1678   00081C  0E4B               	movlw	low STR_2
  1679   00081E  6E28               	movwf	uart_send_array@c^0,c
  1680   000820  5028               	movf	uart_send_array@c^0,w,c
  1681   000822  A4D8               	btfss	status,2,c
  1682   000824  0E06               	movlw	high __smallconst
  1683   000826  6E29               	movwf	(uart_send_array@c+1)^0,c
  1684   000828  0E00               	movlw	0
  1685   00082A  6E2B               	movwf	(uart_send_array@len+1)^0,c
  1686   00082C  0E06               	movlw	6
  1687   00082E  6E2A               	movwf	uart_send_array@len^0,c
  1688   000830  ECB1  F009         	call	_uart_send_array	;wreg free
  1689   000834                     
  1690                           ;main.c: 152:             handle_game_over();
  1691   000834  EC31  F00B         	call	_handle_game_over	;wreg free
  1692   000838                     l106:
  1693                           
  1694                           ;main.c: 158:         TRISDbits.RD7 = 0;
  1695   000838  9E95               	bcf	149,7,c	;volatile
  1696                           
  1697                           ;main.c: 159:         LATDbits.LATD7 = 1;
  1698   00083A  8E8C               	bsf	140,7,c	;volatile
  1699   00083C  EF1C  F004         	goto	l106
  1700   000840  EF13  F000         	goto	start
  1701   000844                     __end_of_main:
  1702                           	callstack 0
  1703                           
  1704 ;; *************** function _uart_init *****************
  1705 ;; Defined at:
  1706 ;;		line 14 in file "uart_layer.c"
  1707 ;; Parameters:    Size  Location     Type
  1708 ;;  gen_reg         2   36[COMRAM] unsigned short 
  1709 ;;  sync            2   38[COMRAM] unsigned int 
  1710 ;;  brgh            2   40[COMRAM] unsigned int 
  1711 ;;  brg16           2   42[COMRAM] unsigned int 
  1712 ;; Auto vars:     Size  Location     Type
  1713 ;;		None
  1714 ;; Return value:  Size  Location     Type
  1715 ;;                  1    wreg      void 
  1716 ;; Registers used:
  1717 ;;		wreg, status,2
  1718 ;; Tracked objects:
  1719 ;;		On entry : 0/0
  1720 ;;		On exit  : 0/0
  1721 ;;		Unchanged: 0/0
  1722 ;; Data sizes:     COMRAM   BANK0   BANK1   BANK2   BANK3   BANK4   BANK5
  1723 ;;      Params:         8       0       0       0       0       0       0
  1724 ;;      Locals:         0       0       0       0       0       0       0
  1725 ;;      Temps:          0       0       0       0       0       0       0
  1726 ;;      Totals:         8       0       0       0       0       0       0
  1727 ;;Total ram usage:        8 bytes
  1728 ;; Hardware stack levels used: 1
  1729 ;; Hardware stack levels required when called: 4
  1730 ;; This function calls:
  1731 ;;		Nothing
  1732 ;; This function is called by:
  1733 ;;		_main
  1734 ;; This function uses a non-reentrant model
  1735 ;;
  1736                           
  1737                           	psect	text1
  1738   001560                     __ptext1:
  1739                           	callstack 0
  1740   001560                     _uart_init:
  1741                           	callstack 26
  1742   001560                     
  1743                           ;uart_layer.c: 15:     TRISCbits.RC7 = 1;
  1744   001560  8E94               	bsf	148,7,c	;volatile
  1745                           
  1746                           ;uart_layer.c: 16:     TRISCbits.RC6 = 1;
  1747   001562  8C94               	bsf	148,6,c	;volatile
  1748   001564                     
  1749                           ;uart_layer.c: 19:     SPBRGH = (gen_reg & 0xFF00) >> 8;
  1750   001564  5026               	movf	(uart_init@gen_reg+1)^0,w,c
  1751   001566  6EB0               	movwf	176,c	;volatile
  1752   001568                     
  1753                           ;uart_layer.c: 20:     SPBRG = gen_reg & 0x00FF;
  1754   001568  C025  FFAF         	movff	uart_init@gen_reg,4015	;volatile
  1755   00156C                     
  1756                           ;uart_layer.c: 22:     RCSTAbits.CREN = 1;
  1757   00156C  88AB               	bsf	171,4,c	;volatile
  1758   00156E                     
  1759                           ;uart_layer.c: 23:     RCSTAbits.SPEN = 1;
  1760   00156E  8EAB               	bsf	171,7,c	;volatile
  1761   001570                     
  1762                           ;uart_layer.c: 24:     BAUDCONbits.BRG16 = brg16;
  1763   001570  B02B               	btfsc	uart_init@brg16^0,0,c
  1764   001572  D002               	bra	u1915
  1765   001574  96B8               	bcf	184,3,c	;volatile
  1766   001576  D001               	bra	u1916
  1767   001578                     u1915:
  1768   001578  86B8               	bsf	184,3,c	;volatile
  1769   00157A                     u1916:
  1770   00157A                     
  1771                           ;uart_layer.c: 26:     TXSTAbits.SYNC = sync;
  1772   00157A  B027               	btfsc	uart_init@sync^0,0,c
  1773   00157C  D002               	bra	u1925
  1774   00157E  98AC               	bcf	172,4,c	;volatile
  1775   001580  D001               	bra	u1926
  1776   001582                     u1925:
  1777   001582  88AC               	bsf	172,4,c	;volatile
  1778   001584                     u1926:
  1779   001584                     
  1780                           ;uart_layer.c: 27:     TXSTAbits.BRGH = brgh;
  1781   001584  B029               	btfsc	uart_init@brgh^0,0,c
  1782   001586  D002               	bra	u1935
  1783   001588  94AC               	bcf	172,2,c	;volatile
  1784   00158A  D001               	bra	u1936
  1785   00158C                     u1935:
  1786   00158C  84AC               	bsf	172,2,c	;volatile
  1787   00158E                     u1936:
  1788   00158E                     
  1789                           ;uart_layer.c: 28:     TXSTAbits.TXEN = 1;
  1790   00158E  8AAC               	bsf	172,5,c	;volatile
  1791   001590                     
  1792                           ;uart_layer.c: 30:     IPR1bits.RCIP = 1;
  1793   001590  8A9F               	bsf	159,5,c	;volatile
  1794   001592                     
  1795                           ;uart_layer.c: 31:     PIE1bits.RCIE = 1;
  1796   001592  8A9D               	bsf	157,5,c	;volatile
  1797   001594                     
  1798                           ;uart_layer.c: 32:     PIR1bits.RCIF = 0;
  1799   001594  9A9E               	bcf	158,5,c	;volatile
  1800   001596  0012               	return		;funcret
  1801   001598                     __end_of_uart_init:
  1802                           	callstack 0
  1803                           
  1804 ;; *************** function _timer0_init *****************
  1805 ;; Defined at:
  1806 ;;		line 14 in file "master.c"
  1807 ;; Parameters:    Size  Location     Type
  1808 ;;		None
  1809 ;; Auto vars:     Size  Location     Type
  1810 ;;		None
  1811 ;; Return value:  Size  Location     Type
  1812 ;;                  1    wreg      void 
  1813 ;; Registers used:
  1814 ;;		wreg, status,2
  1815 ;; Tracked objects:
  1816 ;;		On entry : 0/0
  1817 ;;		On exit  : 0/0
  1818 ;;		Unchanged: 0/0
  1819 ;; Data sizes:     COMRAM   BANK0   BANK1   BANK2   BANK3   BANK4   BANK5
  1820 ;;      Params:         0       0       0       0       0       0       0
  1821 ;;      Locals:         0       0       0       0       0       0       0
  1822 ;;      Temps:          0       0       0       0       0       0       0
  1823 ;;      Totals:         0       0       0       0       0       0       0
  1824 ;;Total ram usage:        0 bytes
  1825 ;; Hardware stack levels used: 1
  1826 ;; Hardware stack levels required when called: 4
  1827 ;; This function calls:
  1828 ;;		Nothing
  1829 ;; This function is called by:
  1830 ;;		_main
  1831 ;; This function uses a non-reentrant model
  1832 ;;
  1833                           
  1834                           	psect	text2
  1835   00168C                     __ptext2:
  1836                           	callstack 0
  1837   00168C                     _timer0_init:
  1838                           	callstack 26
  1839   00168C                     
  1840                           ;master.c: 16:     TRISDbits.RD5 = 0;
  1841   00168C  9A95               	bcf	149,5,c	;volatile
  1842                           
  1843                           ;master.c: 17:     LATDbits.LATD5 = 0;
  1844   00168E  9A8C               	bcf	140,5,c	;volatile
  1845                           
  1846                           ;master.c: 20:     T0CONbits.PSA = 0;
  1847   001690  96D5               	bcf	213,3,c	;volatile
  1848   001692                     
  1849                           ;master.c: 21:     T0CONbits.T0PS = 0b111;
  1850   001692  0E07               	movlw	7
  1851   001694  12D5               	iorwf	213,f,c	;volatile
  1852   001696                     
  1853                           ;master.c: 22:     T0CONbits.T08BIT = 0;
  1854   001696  9CD5               	bcf	213,6,c	;volatile
  1855   001698                     
  1856                           ;master.c: 23:     T0CONbits.T0CS = 0;
  1857   001698  9AD5               	bcf	213,5,c	;volatile
  1858   00169A                     
  1859                           ;master.c: 25:     INTCONbits.TMR0IF = 0;
  1860   00169A  94F2               	bcf	242,2,c	;volatile
  1861   00169C                     
  1862                           ;master.c: 26:     INTCONbits.TMR0IE = 1;
  1863   00169C  8AF2               	bsf	242,5,c	;volatile
  1864   00169E                     
  1865                           ;master.c: 27:     INTCON2bits.TMR0IP = 1;
  1866   00169E  84F1               	bsf	241,2,c	;volatile
  1867                           
  1868                           ;master.c: 28:     TMR0H = 0xE1;
  1869   0016A0  0EE1               	movlw	225
  1870   0016A2  6ED7               	movwf	215,c	;volatile
  1871                           
  1872                           ;master.c: 29:     TMR0L = 0x7C;
  1873   0016A4  0E7C               	movlw	124
  1874   0016A6  6ED6               	movwf	214,c	;volatile
  1875   0016A8  0012               	return		;funcret
  1876   0016AA                     __end_of_timer0_init:
  1877                           	callstack 0
  1878                           
  1879 ;; *************** function _system_init *****************
  1880 ;; Defined at:
  1881 ;;		line 32 in file "master.c"
  1882 ;; Parameters:    Size  Location     Type
  1883 ;;		None
  1884 ;; Auto vars:     Size  Location     Type
  1885 ;;		None
  1886 ;; Return value:  Size  Location     Type
  1887 ;;                  1    wreg      void 
  1888 ;; Registers used:
  1889 ;;		wreg, status,2
  1890 ;; Tracked objects:
  1891 ;;		On entry : 0/0
  1892 ;;		On exit  : 0/0
  1893 ;;		Unchanged: 0/0
  1894 ;; Data sizes:     COMRAM   BANK0   BANK1   BANK2   BANK3   BANK4   BANK5
  1895 ;;      Params:         0       0       0       0       0       0       0
  1896 ;;      Locals:         0       0       0       0       0       0       0
  1897 ;;      Temps:          0       0       0       0       0       0       0
  1898 ;;      Totals:         0       0       0       0       0       0       0
  1899 ;;Total ram usage:        0 bytes
  1900 ;; Hardware stack levels used: 1
  1901 ;; Hardware stack levels required when called: 4
  1902 ;; This function calls:
  1903 ;;		Nothing
  1904 ;; This function is called by:
  1905 ;;		_main
  1906 ;; This function uses a non-reentrant model
  1907 ;;
  1908                           
  1909                           	psect	text3
  1910   001636                     __ptext3:
  1911                           	callstack 0
  1912   001636                     _system_init:
  1913                           	callstack 26
  1914   001636                     
  1915                           ;master.c: 34:     OSCCONbits.IDLEN = 0;
  1916   001636  9ED3               	bcf	211,7,c	;volatile
  1917   001638                     
  1918                           ;master.c: 35:     OSCCONbits.IRCF = 0x07;
  1919   001638  0E70               	movlw	112
  1920   00163A  12D3               	iorwf	211,f,c	;volatile
  1921                           
  1922                           ;master.c: 36:     OSCCONbits.SCS = 0x03;
  1923   00163C  0E03               	movlw	3
  1924   00163E  12D3               	iorwf	211,f,c	;volatile
  1925   001640                     l218:
  1926   001640  A4D3               	btfss	211,2,c	;volatile
  1927   001642  EF25  F00B         	goto	u1901
  1928   001646  EF27  F00B         	goto	u1900
  1929   00164A                     u1901:
  1930   00164A  EF20  F00B         	goto	l218
  1931   00164E                     u1900:
  1932   00164E                     
  1933                           ;master.c: 40:     ADCON1 = 0x0F;
  1934   00164E  0E0F               	movlw	15
  1935   001650  6EC1               	movwf	193,c	;volatile
  1936   001652                     
  1937                           ;master.c: 41:     TRISBbits.RB0 = 1;
  1938   001652  8093               	bsf	147,0,c	;volatile
  1939   001654                     
  1940                           ;master.c: 42:     LATBbits.LATB0 = 0;
  1941   001654  908A               	bcf	138,0,c	;volatile
  1942   001656                     
  1943                           ;master.c: 43:     INTCONbits.INT0IE = 1;
  1944   001656  88F2               	bsf	242,4,c	;volatile
  1945   001658                     
  1946                           ;master.c: 44:     INTCONbits.INT0IF = 0;
  1947   001658  92F2               	bcf	242,1,c	;volatile
  1948   00165A                     
  1949                           ;master.c: 47:     RCONbits.IPEN = 1;
  1950   00165A  8ED0               	bsf	208,7,c	;volatile
  1951   00165C                     
  1952                           ;master.c: 48:     INTCONbits.GIEH = 1;
  1953   00165C  8EF2               	bsf	242,7,c	;volatile
  1954   00165E                     
  1955                           ;master.c: 49:     INTCONbits.GIEL = 1;
  1956   00165E  8CF2               	bsf	242,6,c	;volatile
  1957   001660  0012               	return		;funcret
  1958   001662                     __end_of_system_init:
  1959                           	callstack 0
  1960                           
  1961 ;; *************** function _srand *****************
  1962 ;; Defined at:
  1963 ;;		line 6 in file "C:\Program Files\Microchip\xc8\v3.00\pic\sources\c99\common\rand.c"
  1964 ;; Parameters:    Size  Location     Type
  1965 ;;  s               2   36[COMRAM] unsigned int 
  1966 ;; Auto vars:     Size  Location     Type
  1967 ;;		None
  1968 ;; Return value:  Size  Location     Type
  1969 ;;                  1    wreg      void 
  1970 ;; Registers used:
  1971 ;;		wreg, status,2, status,0
  1972 ;; Tracked objects:
  1973 ;;		On entry : 0/0
  1974 ;;		On exit  : 0/0
  1975 ;;		Unchanged: 0/0
  1976 ;; Data sizes:     COMRAM   BANK0   BANK1   BANK2   BANK3   BANK4   BANK5
  1977 ;;      Params:         2       0       0       0       0       0       0
  1978 ;;      Locals:         0       0       0       0       0       0       0
  1979 ;;      Temps:          2       0       0       0       0       0       0
  1980 ;;      Totals:         4       0       0       0       0       0       0
  1981 ;;Total ram usage:        4 bytes
  1982 ;; Hardware stack levels used: 1
  1983 ;; Hardware stack levels required when called: 4
  1984 ;; This function calls:
  1985 ;;		Nothing
  1986 ;; This function is called by:
  1987 ;;		_main
  1988 ;; This function uses a non-reentrant model
  1989 ;;
  1990                           
  1991                           	psect	text4
  1992   0016E2                     __ptext4:
  1993                           	callstack 0
  1994   0016E2                     _srand:
  1995                           	callstack 26
  1996   0016E2  0EFF               	movlw	255
  1997   0016E4  2425               	addwf	srand@s^0,w,c
  1998   0016E6  6E27               	movwf	??_srand^0,c
  1999   0016E8  0EFF               	movlw	255
  2000   0016EA  2026               	addwfc	(srand@s+1)^0,w,c
  2001   0016EC  6E28               	movwf	(??_srand+1)^0,c
  2002   0016EE  C027  F056         	movff	??_srand,_seed
  2003   0016F2  C028  F057         	movff	??_srand+1,_seed+1
  2004   0016F6  6A58               	clrf	(_seed+2)^0,c
  2005   0016F8  6A59               	clrf	(_seed+3)^0,c
  2006   0016FA  0012               	return		;funcret
  2007   0016FC                     __end_of_srand:
  2008                           	callstack 0
  2009                           
  2010 ;; *************** function _send_apple_pos *****************
  2011 ;; Defined at:
  2012 ;;		line 60 in file "master.c"
  2013 ;; Parameters:    Size  Location     Type
  2014 ;;  x               1    wreg     unsigned char 
  2015 ;;  y               1   73[COMRAM] unsigned char 
  2016 ;; Auto vars:     Size  Location     Type
  2017 ;;  x               1   50[BANK0 ] unsigned char 
  2018 ;;  buff           32   18[BANK0 ] unsigned char [32]
  2019 ;; Return value:  Size  Location     Type
  2020 ;;                  1    wreg      void 
  2021 ;; Registers used:
  2022 ;;		wreg, fsr1l, fsr1h, fsr2l, fsr2h, status,2, status,0, tblptrl, tblptrh, tblptru, cstack
  2023 ;; Tracked objects:
  2024 ;;		On entry : 0/0
  2025 ;;		On exit  : 0/0
  2026 ;;		Unchanged: 0/0
  2027 ;; Data sizes:     COMRAM   BANK0   BANK1   BANK2   BANK3   BANK4   BANK5
  2028 ;;      Params:         1       0       0       0       0       0       0
  2029 ;;      Locals:         0      33       0       0       0       0       0
  2030 ;;      Temps:          0       0       0       0       0       0       0
  2031 ;;      Totals:         1      33       0       0       0       0       0
  2032 ;;Total ram usage:       34 bytes
  2033 ;; Hardware stack levels used: 1
  2034 ;; Hardware stack levels required when called: 9
  2035 ;; This function calls:
  2036 ;;		_sprintf
  2037 ;;		_strlen
  2038 ;;		_uart_send_array
  2039 ;; This function is called by:
  2040 ;;		_main
  2041 ;; This function uses a non-reentrant model
  2042 ;;
  2043                           
  2044                           	psect	text5
  2045   001526                     __ptext5:
  2046                           	callstack 0
  2047   001526                     _send_apple_pos:
  2048                           	callstack 21
  2049                           
  2050                           ;incstack = 0
  2051                           ;send_apple_pos@x stored from wreg
  2052   001526  0100               	movlb	0	; () banked
  2053   001528  6FF8               	movwf	send_apple_pos@x& (0+255),b
  2054   00152A                     
  2055                           ;master.c: 68:     char buff[32];;master.c: 69:     sprintf(buff, "APPLE x=%u y=%u\r\n",
      +                           x, y);
  2056   00152A  0ED8               	movlw	low send_apple_pos@buff
  2057   00152C  0100               	movlb	0	; () banked
  2058   00152E  6FC6               	movwf	sprintf@s& (0+255),b
  2059   001530  0E01               	movlw	low STR_7
  2060   001532  6FC7               	movwf	sprintf@fmt& (0+255),b
  2061   001534  C0F8  F0C8         	movff	send_apple_pos@x,?_sprintf+2
  2062   001538  6BC9               	clrf	(?_sprintf+3)& (0+255),b
  2063   00153A  C04A  F0CA         	movff	send_apple_pos@y,?_sprintf+4
  2064   00153E  6BCB               	clrf	(?_sprintf+5)& (0+255),b
  2065   001540  ECE8  F00A         	call	_sprintf	;wreg free
  2066                           
  2067                           ;master.c: 70:     uart_send_array((uint8_t *)buff, strlen(buff));
  2068   001544  0ED8               	movlw	low send_apple_pos@buff
  2069   001546  6E28               	movwf	uart_send_array@c^0,c
  2070   001548  6A29               	clrf	(uart_send_array@c+1)^0,c
  2071   00154A  0ED8               	movlw	low send_apple_pos@buff
  2072   00154C  6E25               	movwf	strlen@s^0,c
  2073   00154E  EC04  F00B         	call	_strlen	;wreg free
  2074   001552  C025  F02A         	movff	?_strlen,uart_send_array@len
  2075   001556  C026  F02B         	movff	?_strlen+1,uart_send_array@len+1
  2076   00155A  ECB1  F009         	call	_uart_send_array	;wreg free
  2077   00155E  0012               	return		;funcret
  2078   001560                     __end_of_send_apple_pos:
  2079                           	callstack 0
  2080                           
  2081 ;; *************** function _parse_command_from_pc *****************
  2082 ;; Defined at:
  2083 ;;		line 17 in file "putty_test.c"
  2084 ;; Parameters:    Size  Location     Type
  2085 ;;  line            1   54[COMRAM] PTR unsigned char 
  2086 ;;		 -> uart_rx_buf(32), 
  2087 ;; Auto vars:     Size  Location     Type
  2088 ;;  i               2   64[COMRAM] int 
  2089 ;;  pos             6   56[COMRAM] unsigned char [6]
  2090 ;;  idx             1   63[COMRAM] unsigned char 
  2091 ;;  flag            1   62[COMRAM] unsigned char 
  2092 ;; Return value:  Size  Location     Type
  2093 ;;                  1    wreg      void 
  2094 ;; Registers used:
  2095 ;;		wreg, fsr1l, fsr1h, fsr2l, fsr2h, status,2, status,0, tblptrl, tblptrh, tblptru, prodl, prodh, cstack
  2096 ;; Tracked objects:
  2097 ;;		On entry : 0/0
  2098 ;;		On exit  : 0/0
  2099 ;;		Unchanged: 0/0
  2100 ;; Data sizes:     COMRAM   BANK0   BANK1   BANK2   BANK3   BANK4   BANK5
  2101 ;;      Params:         1       0       0       0       0       0       0
  2102 ;;      Locals:        10       0       0       0       0       0       0
  2103 ;;      Temps:          1       0       0       0       0       0       0
  2104 ;;      Totals:        12       0       0       0       0       0       0
  2105 ;;Total ram usage:       12 bytes
  2106 ;; Hardware stack levels used: 1
  2107 ;; Hardware stack levels required when called: 8
  2108 ;; This function calls:
  2109 ;;		_feed_snake_packet
  2110 ;;		_strlen
  2111 ;;		_uart_rx_from_player
  2112 ;; This function is called by:
  2113 ;;		_main
  2114 ;; This function uses a non-reentrant model
  2115 ;;
  2116                           
  2117                           	psect	text6
  2118   000F86                     __ptext6:
  2119                           	callstack 0
  2120   000F86                     _parse_command_from_pc:
  2121                           	callstack 22
  2122   000F86                     
  2123                           ;putty_test.c: 17: void parse_command_from_pc(char *line);putty_test.c: 18: {;putty_test
      +                          .c: 23:     if (line[0] == 'G') {
  2124   000F86  5037               	movf	parse_command_from_pc@line^0,w,c
  2125   000F88  6ED9               	movwf	fsr2l,c
  2126   000F8A  6ADA               	clrf	fsr2h,c
  2127   000F8C  0E47               	movlw	71
  2128   000F8E  18DE               	xorwf	postinc2,w,c
  2129   000F90  A4D8               	btfss	status,2,c
  2130   000F92  EFCD  F007         	goto	u1941
  2131   000F96  EFCF  F007         	goto	u1940
  2132   000F9A                     u1941:
  2133   000F9A  EFD4  F007         	goto	l2556
  2134   000F9E                     u1940:
  2135   000F9E                     
  2136                           ;putty_test.c: 25:         uart_rx_from_player(0);
  2137   000F9E  0E00               	movlw	0
  2138   000FA0  ECFC  F004         	call	_uart_rx_from_player
  2139                           
  2140                           ;putty_test.c: 26:     }
  2141   000FA4  EF23  F008         	goto	l250
  2142   000FA8                     l2556:
  2143   000FA8  5037               	movf	parse_command_from_pc@line^0,w,c
  2144   000FAA  6ED9               	movwf	fsr2l,c
  2145   000FAC  6ADA               	clrf	fsr2h,c
  2146   000FAE  0E53               	movlw	83
  2147   000FB0  18DE               	xorwf	postinc2,w,c
  2148   000FB2  A4D8               	btfss	status,2,c
  2149   000FB4  EFDE  F007         	goto	u1951
  2150   000FB8  EFE0  F007         	goto	u1950
  2151   000FBC                     u1951:
  2152   000FBC  EF23  F008         	goto	l250
  2153   000FC0                     u1950:
  2154   000FC0                     
  2155                           ;putty_test.c: 28:         uint8_t pos[6], idx = 0, flag;
  2156   000FC0  6A40               	clrf	parse_command_from_pc@idx^0,c
  2157   000FC2                     
  2158                           ;putty_test.c: 29:         for(int i=1; line[i] != '\0'; i++) {
  2159   000FC2  0E00               	movlw	0
  2160   000FC4  6E42               	movwf	(parse_command_from_pc@i+1)^0,c
  2161   000FC6  0E01               	movlw	1
  2162   000FC8  6E41               	movwf	parse_command_from_pc@i^0,c
  2163   000FCA  EF04  F008         	goto	l2572
  2164   000FCE                     l2562:
  2165                           
  2166                           ;putty_test.c: 30:             if(line[i] == ',') continue;
  2167   000FCE  5037               	movf	parse_command_from_pc@line^0,w,c
  2168   000FD0  2441               	addwf	parse_command_from_pc@i^0,w,c
  2169   000FD2  6ED9               	movwf	fsr2l,c
  2170   000FD4  6ADA               	clrf	fsr2h,c
  2171   000FD6  0E2C               	movlw	44
  2172   000FD8  18DE               	xorwf	postinc2,w,c
  2173   000FDA  A4D8               	btfss	status,2,c
  2174   000FDC  EFF2  F007         	goto	u1961
  2175   000FE0  EFF4  F007         	goto	u1960
  2176   000FE4                     u1961:
  2177   000FE4  EFF6  F007         	goto	l2566
  2178   000FE8                     u1960:
  2179   000FE8  EF02  F008         	goto	l2570
  2180   000FEC                     l2566:
  2181                           
  2182                           ;putty_test.c: 31:             pos[idx++] = line[i] -48;
  2183   000FEC  5040               	movf	parse_command_from_pc@idx^0,w,c
  2184   000FEE  0F39               	addlw	low parse_command_from_pc@pos
  2185   000FF0  6ED9               	movwf	fsr2l,c
  2186   000FF2  6ADA               	clrf	fsr2h,c
  2187   000FF4  5037               	movf	parse_command_from_pc@line^0,w,c
  2188   000FF6  2441               	addwf	parse_command_from_pc@i^0,w,c
  2189   000FF8  6EE1               	movwf	fsr1l,c
  2190   000FFA  6AE2               	clrf	fsr1h,c
  2191   000FFC  50E7               	movf	indf1,w,c
  2192   000FFE  0FD0               	addlw	208
  2193   001000  6EDF               	movwf	indf2,c
  2194   001002  2A40               	incf	parse_command_from_pc@idx^0,f,c
  2195   001004                     l2570:
  2196   001004  4A41               	infsnz	parse_command_from_pc@i^0,f,c
  2197   001006  2A42               	incf	(parse_command_from_pc@i+1)^0,f,c
  2198   001008                     l2572:
  2199   001008  5037               	movf	parse_command_from_pc@line^0,w,c
  2200   00100A  2441               	addwf	parse_command_from_pc@i^0,w,c
  2201   00100C  6ED9               	movwf	fsr2l,c
  2202   00100E  6ADA               	clrf	fsr2h,c
  2203   001010  50DF               	movf	indf2,w,c
  2204   001012  A4D8               	btfss	status,2,c
  2205   001014  EF0E  F008         	goto	u1971
  2206   001018  EF10  F008         	goto	u1970
  2207   00101C                     u1971:
  2208   00101C  EFE7  F007         	goto	l2562
  2209   001020                     u1970:
  2210   001020                     
  2211                           ;putty_test.c: 33:         flag = line[strlen(line) - 1] - 48;
  2212   001020  C037  F025         	movff	parse_command_from_pc@line,strlen@s
  2213   001024  EC04  F00B         	call	_strlen	;wreg free
  2214   001028  5037               	movf	parse_command_from_pc@line^0,w,c
  2215   00102A  2425               	addwf	?_strlen^0,w,c
  2216   00102C  6ED9               	movwf	fsr2l,c
  2217   00102E  6ADA               	clrf	fsr2h,c
  2218   001030  0EFF               	movlw	255
  2219   001032  26D9               	addwf	fsr2l,f,c
  2220   001034  50DF               	movf	indf2,w,c
  2221   001036  0FD0               	addlw	208
  2222   001038  6E3F               	movwf	parse_command_from_pc@flag^0,c
  2223   00103A                     
  2224                           ;putty_test.c: 34:         feed_snake_packet(pos, flag);
  2225   00103A  0E39               	movlw	low parse_command_from_pc@pos
  2226   00103C  6E33               	movwf	feed_snake_packet@pos^0,c
  2227   00103E  C03F  F034         	movff	parse_command_from_pc@flag,feed_snake_packet@flag
  2228   001042  EC52  F00A         	call	_feed_snake_packet	;wreg free
  2229   001046                     l250:
  2230   001046  0012               	return		;funcret
  2231   001048                     __end_of_parse_command_from_pc:
  2232                           	callstack 0
  2233                           
  2234 ;; *************** function _feed_snake_packet *****************
  2235 ;; Defined at:
  2236 ;;		line 7 in file "putty_test.c"
  2237 ;; Parameters:    Size  Location     Type
  2238 ;;  pos             1   50[COMRAM] PTR unsigned char 
  2239 ;;		 -> parse_command_from_pc@pos(6), 
  2240 ;;  flag            1   51[COMRAM] unsigned char 
  2241 ;; Auto vars:     Size  Location     Type
  2242 ;;  i               2   52[COMRAM] int 
  2243 ;; Return value:  Size  Location     Type
  2244 ;;                  1    wreg      void 
  2245 ;; Registers used:
  2246 ;;		wreg, fsr1l, fsr1h, fsr2l, fsr2h, status,2, status,0, tblptrl, tblptrh, tblptru, prodl, prodh, cstack
  2247 ;; Tracked objects:
  2248 ;;		On entry : 0/0
  2249 ;;		On exit  : 0/0
  2250 ;;		Unchanged: 0/0
  2251 ;; Data sizes:     COMRAM   BANK0   BANK1   BANK2   BANK3   BANK4   BANK5
  2252 ;;      Params:         2       0       0       0       0       0       0
  2253 ;;      Locals:         2       0       0       0       0       0       0
  2254 ;;      Temps:          0       0       0       0       0       0       0
  2255 ;;      Totals:         4       0       0       0       0       0       0
  2256 ;;Total ram usage:        4 bytes
  2257 ;; Hardware stack levels used: 1
  2258 ;; Hardware stack levels required when called: 7
  2259 ;; This function calls:
  2260 ;;		_uart_rx_from_player
  2261 ;; This function is called by:
  2262 ;;		_parse_command_from_pc
  2263 ;; This function uses a non-reentrant model
  2264 ;;
  2265                           
  2266                           	psect	text7
  2267   0014A4                     __ptext7:
  2268                           	callstack 0
  2269   0014A4                     _feed_snake_packet:
  2270                           	callstack 22
  2271   0014A4                     
  2272                           ;putty_test.c: 7: static void feed_snake_packet(uint8_t *pos, uint8_t flag);putty_test.c
      +                          : 8: {;putty_test.c: 10:     uart_rx_from_player(1);
  2273   0014A4  0E01               	movlw	1
  2274   0014A6  ECFC  F004         	call	_uart_rx_from_player
  2275   0014AA                     
  2276                           ;putty_test.c: 11:     for(int i=0; i<6; i++) {
  2277   0014AA  0E00               	movlw	0
  2278   0014AC  6E36               	movwf	(feed_snake_packet@i+1)^0,c
  2279   0014AE  0E00               	movlw	0
  2280   0014B0  6E35               	movwf	feed_snake_packet@i^0,c
  2281   0014B2                     l2476:
  2282                           
  2283                           ;putty_test.c: 12:         uart_rx_from_player(pos[i]);
  2284   0014B2  5033               	movf	feed_snake_packet@pos^0,w,c
  2285   0014B4  2435               	addwf	feed_snake_packet@i^0,w,c
  2286   0014B6  6ED9               	movwf	fsr2l,c
  2287   0014B8  6ADA               	clrf	fsr2h,c
  2288   0014BA  50DF               	movf	indf2,w,c
  2289   0014BC  ECFC  F004         	call	_uart_rx_from_player
  2290   0014C0                     
  2291                           ;putty_test.c: 13:     }
  2292   0014C0  4A35               	infsnz	feed_snake_packet@i^0,f,c
  2293   0014C2  2A36               	incf	(feed_snake_packet@i+1)^0,f,c
  2294   0014C4  BE36               	btfsc	(feed_snake_packet@i+1)^0,7,c
  2295   0014C6  EF6E  F00A         	goto	u1891
  2296   0014CA  5036               	movf	(feed_snake_packet@i+1)^0,w,c
  2297   0014CC  E109               	bnz	u1890
  2298   0014CE  0E06               	movlw	6
  2299   0014D0  5C35               	subwf	feed_snake_packet@i^0,w,c
  2300   0014D2  A0D8               	btfss	status,0,c
  2301   0014D4  EF6E  F00A         	goto	u1891
  2302   0014D8  EF70  F00A         	goto	u1890
  2303   0014DC                     u1891:
  2304   0014DC  EF59  F00A         	goto	l2476
  2305   0014E0                     u1890:
  2306   0014E0                     
  2307                           ;putty_test.c: 14:     uart_rx_from_player(flag);
  2308   0014E0  5034               	movf	feed_snake_packet@flag^0,w,c
  2309   0014E2  ECFC  F004         	call	_uart_rx_from_player
  2310   0014E6  0012               	return		;funcret
  2311   0014E8                     __end_of_feed_snake_packet:
  2312                           	callstack 0
  2313                           
  2314 ;; *************** function _uart_rx_from_player *****************
  2315 ;; Defined at:
  2316 ;;		line 42 in file "uart_layer.c"
  2317 ;; Parameters:    Size  Location     Type
  2318 ;;  c               1    wreg     unsigned char 
  2319 ;; Auto vars:     Size  Location     Type
  2320 ;;  c               1   49[COMRAM] unsigned char 
  2321 ;; Return value:  Size  Location     Type
  2322 ;;                  1    wreg      void 
  2323 ;; Registers used:
  2324 ;;		wreg, fsr1l, fsr1h, fsr2l, fsr2h, status,2, status,0, tblptrl, tblptrh, tblptru, prodl, prodh, cstack
  2325 ;; Tracked objects:
  2326 ;;		On entry : 0/0
  2327 ;;		On exit  : 0/0
  2328 ;;		Unchanged: 0/0
  2329 ;; Data sizes:     COMRAM   BANK0   BANK1   BANK2   BANK3   BANK4   BANK5
  2330 ;;      Params:         0       0       0       0       0       0       0
  2331 ;;      Locals:         1       0       0       0       0       0       0
  2332 ;;      Temps:          3       0       0       0       0       0       0
  2333 ;;      Totals:         4       0       0       0       0       0       0
  2334 ;;Total ram usage:        4 bytes
  2335 ;; Hardware stack levels used: 1
  2336 ;; Hardware stack levels required when called: 6
  2337 ;; This function calls:
  2338 ;;		___awdiv
  2339 ;;		_memset
  2340 ;;		_uart_send_array
  2341 ;; This function is called by:
  2342 ;;		_feed_snake_packet
  2343 ;;		_parse_command_from_pc
  2344 ;; This function uses a non-reentrant model
  2345 ;;
  2346                           
  2347                           	psect	text8
  2348   0009F8                     __ptext8:
  2349                           	callstack 0
  2350   0009F8                     _uart_rx_from_player:
  2351                           	callstack 23
  2352                           
  2353                           ;incstack = 0
  2354                           ;uart_rx_from_player@c stored from wreg
  2355   0009F8  6E32               	movwf	uart_rx_from_player@c^0,c
  2356   0009FA                     
  2357                           ;uart_layer.c: 43:     static volatile uart_rx_state_t rx_state = RX_WAIT_MSG_TYPE;;uart
      +                          _layer.c: 44:     static volatile uint8_t rx_index = 0;;uart_layer.c: 46:     switch(rx_
      +                          state) {
  2358   0009FA  EFB4  F005         	goto	l2414
  2359   0009FE                     l2378:
  2360                           
  2361                           ;uart_layer.c: 48:             if(c == 0) {
  2362   0009FE  5032               	movf	uart_rx_from_player@c^0,w,c
  2363   000A00  A4D8               	btfss	status,2,c
  2364   000A02  EF05  F005         	goto	u1801
  2365   000A06  EF07  F005         	goto	u1800
  2366   000A0A                     u1801:
  2367   000A0A  EF19  F005         	goto	l165
  2368   000A0E                     u1800:
  2369   000A0E                     
  2370                           ;uart_layer.c: 49:                 is_game_over = 1;
  2371   000A0E  0E01               	movlw	1
  2372   000A10  0100               	movlb	0	; () banked
  2373   000A12  6FA3               	movwf	_is_game_over& (0+255),b	;volatile
  2374   000A14                     
  2375                           ; BSR set to: 0
  2376                           ;uart_layer.c: 50:                 rx_state = RX_WAIT_MSG_TYPE;
  2377   000A14  6A55               	clrf	uart_rx_from_player@rx_state^0,c	;volatile
  2378   000A16                     
  2379                           ; BSR set to: 0
  2380                           ;uart_layer.c: 51:                 uart_send_array("UART\r\n", 6);
  2381   000A16  0E3D               	movlw	low STR_3
  2382   000A18  6E28               	movwf	uart_send_array@c^0,c
  2383   000A1A  5028               	movf	uart_send_array@c^0,w,c
  2384   000A1C  A4D8               	btfss	status,2,c
  2385   000A1E  0E06               	movlw	high __smallconst
  2386   000A20  6E29               	movwf	(uart_send_array@c+1)^0,c
  2387   000A22  0E00               	movlw	0
  2388   000A24  6E2B               	movwf	(uart_send_array@len+1)^0,c
  2389   000A26  0E06               	movlw	6
  2390   000A28  6E2A               	movwf	uart_send_array@len^0,c
  2391   000A2A  ECB1  F009         	call	_uart_send_array	;wreg free
  2392                           
  2393                           ;uart_layer.c: 52:             }
  2394   000A2E  EFCD  F005         	goto	l174
  2395   000A32                     l165:
  2396                           
  2397                           ;uart_layer.c: 54:                 rx_index = 0;
  2398   000A32  6A54               	clrf	uart_rx_from_player@rx_index^0,c	;volatile
  2399   000A34                     
  2400                           ;uart_layer.c: 55:                 memset(snake_x_rx, 0, sizeof(snake_x_rx));
  2401   000A34  0E32               	movlw	low _snake_x_rx
  2402   000A36  6E25               	movwf	memset@dest^0,c
  2403   000A38  0E01               	movlw	high _snake_x_rx
  2404   000A3A  6E26               	movwf	(memset@dest+1)^0,c
  2405   000A3C  0E00               	movlw	0
  2406   000A3E  6E28               	movwf	(memset@c+1)^0,c
  2407   000A40  0E00               	movlw	0
  2408   000A42  6E27               	movwf	memset@c^0,c
  2409   000A44  0E00               	movlw	0
  2410   000A46  6E2A               	movwf	(memset@n+1)^0,c
  2411   000A48  0E32               	movlw	50
  2412   000A4A  6E29               	movwf	memset@n^0,c
  2413   000A4C  ECCC  F00A         	call	_memset	;wreg free
  2414                           
  2415                           ;uart_layer.c: 56:                 memset(snake_y_rx, 0, sizeof(snake_y_rx));
  2416   000A50  0E00               	movlw	low _snake_y_rx
  2417   000A52  6E25               	movwf	memset@dest^0,c
  2418   000A54  0E01               	movlw	high _snake_y_rx
  2419   000A56  6E26               	movwf	(memset@dest+1)^0,c
  2420   000A58  0E00               	movlw	0
  2421   000A5A  6E28               	movwf	(memset@c+1)^0,c
  2422   000A5C  0E00               	movlw	0
  2423   000A5E  6E27               	movwf	memset@c^0,c
  2424   000A60  0E00               	movlw	0
  2425   000A62  6E2A               	movwf	(memset@n+1)^0,c
  2426   000A64  0E32               	movlw	50
  2427   000A66  6E29               	movwf	memset@n^0,c
  2428   000A68  ECCC  F00A         	call	_memset	;wreg free
  2429   000A6C                     
  2430                           ;uart_layer.c: 57:                 rx_state = RX_WAIT_DATA;
  2431   000A6C  0E01               	movlw	1
  2432   000A6E  6E55               	movwf	uart_rx_from_player@rx_state^0,c	;volatile
  2433   000A70                     
  2434                           ;uart_layer.c: 58:                 uart_send_array("STATE 1\r\n", 9);
  2435   000A70  0E1F               	movlw	low STR_4
  2436   000A72  6E28               	movwf	uart_send_array@c^0,c
  2437   000A74  5028               	movf	uart_send_array@c^0,w,c
  2438   000A76  A4D8               	btfss	status,2,c
  2439   000A78  0E06               	movlw	high __smallconst
  2440   000A7A  6E29               	movwf	(uart_send_array@c+1)^0,c
  2441   000A7C  0E00               	movlw	0
  2442   000A7E  6E2B               	movwf	(uart_send_array@len+1)^0,c
  2443   000A80  0E09               	movlw	9
  2444   000A82  6E2A               	movwf	uart_send_array@len^0,c
  2445   000A84  ECB1  F009         	call	_uart_send_array	;wreg free
  2446   000A88  EFCD  F005         	goto	l174
  2447   000A8C                     l168:
  2448                           
  2449                           ;uart_layer.c: 67:             if((rx_index & 1) == 0) {
  2450   000A8C  B054               	btfsc	uart_rx_from_player@rx_index^0,0,c	;volatile
  2451   000A8E  EF4B  F005         	goto	u1811
  2452   000A92  EF4D  F005         	goto	u1810
  2453   000A96                     u1811:
  2454   000A96  EF60  F005         	goto	l2394
  2455   000A9A                     u1810:
  2456   000A9A                     
  2457                           ;uart_layer.c: 68:                 snake_x_rx[rx_index/2] = c;
  2458   000A9A  C054  F025         	movff	uart_rx_from_player@rx_index,___awdiv@dividend	;volatile
  2459   000A9E  6A26               	clrf	(___awdiv@dividend+1)^0,c
  2460   000AA0  0E00               	movlw	0
  2461   000AA2  6E28               	movwf	(___awdiv@divisor+1)^0,c
  2462   000AA4  0E02               	movlw	2
  2463   000AA6  6E27               	movwf	___awdiv@divisor^0,c
  2464   000AA8  EC24  F008         	call	___awdiv	;wreg free
  2465   000AAC  0E32               	movlw	low _snake_x_rx
  2466   000AAE  2425               	addwf	?___awdiv^0,w,c
  2467   000AB0  6ED9               	movwf	fsr2l,c
  2468   000AB2  0E01               	movlw	high _snake_x_rx
  2469   000AB4  2026               	addwfc	(?___awdiv+1)^0,w,c
  2470   000AB6  6EDA               	movwf	fsr2h,c
  2471   000AB8  C032  FFDF         	movff	uart_rx_from_player@c,indf2
  2472                           
  2473                           ;uart_layer.c: 69:             }
  2474   000ABC  EF71  F005         	goto	l2396
  2475   000AC0                     l2394:
  2476                           
  2477                           ;uart_layer.c: 71:                 snake_y_rx[rx_index/2] = c;
  2478   000AC0  C054  F025         	movff	uart_rx_from_player@rx_index,___awdiv@dividend	;volatile
  2479   000AC4  6A26               	clrf	(___awdiv@dividend+1)^0,c
  2480   000AC6  0E00               	movlw	0
  2481   000AC8  6E28               	movwf	(___awdiv@divisor+1)^0,c
  2482   000ACA  0E02               	movlw	2
  2483   000ACC  6E27               	movwf	___awdiv@divisor^0,c
  2484   000ACE  EC24  F008         	call	___awdiv	;wreg free
  2485   000AD2  0E00               	movlw	low _snake_y_rx
  2486   000AD4  2425               	addwf	?___awdiv^0,w,c
  2487   000AD6  6ED9               	movwf	fsr2l,c
  2488   000AD8  0E01               	movlw	high _snake_y_rx
  2489   000ADA  2026               	addwfc	(?___awdiv+1)^0,w,c
  2490   000ADC  6EDA               	movwf	fsr2h,c
  2491   000ADE  C032  FFDF         	movff	uart_rx_from_player@c,indf2
  2492   000AE2                     l2396:
  2493                           
  2494                           ;uart_layer.c: 73:             uart_send_array("STATE 2\r\n", 9);
  2495   000AE2  0E29               	movlw	low STR_5
  2496   000AE4  6E28               	movwf	uart_send_array@c^0,c
  2497   000AE6  5028               	movf	uart_send_array@c^0,w,c
  2498   000AE8  A4D8               	btfss	status,2,c
  2499   000AEA  0E06               	movlw	high __smallconst
  2500   000AEC  6E29               	movwf	(uart_send_array@c+1)^0,c
  2501   000AEE  0E00               	movlw	0
  2502   000AF0  6E2B               	movwf	(uart_send_array@len+1)^0,c
  2503   000AF2  0E09               	movlw	9
  2504   000AF4  6E2A               	movwf	uart_send_array@len^0,c
  2505   000AF6  ECB1  F009         	call	_uart_send_array	;wreg free
  2506   000AFA                     
  2507                           ;uart_layer.c: 74:             rx_index++;
  2508   000AFA  2A54               	incf	uart_rx_from_player@rx_index^0,f,c	;volatile
  2509   000AFC                     
  2510                           ;uart_layer.c: 75:             if(rx_index >= snake_len_rx * 2) {
  2511   000AFC  0100               	movlb	0	; () banked
  2512   000AFE  51F9               	movf	_snake_len_rx& (0+255),w,b	;volatile
  2513   000B00  0D02               	mullw	2
  2514   000B02  5054               	movf	uart_rx_from_player@rx_index^0,w,c	;volatile
  2515   000B04  6E2F               	movwf	??_uart_rx_from_player^0,c
  2516   000B06  6A30               	clrf	(??_uart_rx_from_player+1)^0,c
  2517   000B08  50F3               	movf	243,w,c
  2518   000B0A  5C2F               	subwf	??_uart_rx_from_player^0,w,c
  2519   000B0C  5030               	movf	(??_uart_rx_from_player+1)^0,w,c
  2520   000B0E  0A80               	xorlw	128
  2521   000B10  6E31               	movwf	(??_uart_rx_from_player+2)^0,c
  2522   000B12  50F4               	movf	244,w,c
  2523   000B14  0A80               	xorlw	128
  2524   000B16  5831               	subwfb	(??_uart_rx_from_player+2)^0,w,c
  2525   000B18  A0D8               	btfss	status,0,c
  2526   000B1A  EF91  F005         	goto	u1821
  2527   000B1E  EF93  F005         	goto	u1820
  2528   000B22                     u1821:
  2529   000B22  EFCD  F005         	goto	l174
  2530   000B26                     u1820:
  2531   000B26                     
  2532                           ; BSR set to: 0
  2533                           ;uart_layer.c: 76:                 rx_state = RX_WAIT_APPLE;
  2534   000B26  0E02               	movlw	2
  2535   000B28  6E55               	movwf	uart_rx_from_player@rx_state^0,c	;volatile
  2536   000B2A  EFCD  F005         	goto	l174
  2537   000B2E                     l2404:
  2538                           
  2539                           ;uart_layer.c: 80:             if(c == 1) apple_eaten = 1;
  2540   000B2E  0432               	decf	uart_rx_from_player@c^0,w,c
  2541   000B30  A4D8               	btfss	status,2,c
  2542   000B32  EF9D  F005         	goto	u1831
  2543   000B36  EF9F  F005         	goto	u1830
  2544   000B3A                     u1831:
  2545   000B3A  EFA2  F005         	goto	l173
  2546   000B3E                     u1830:
  2547   000B3E  0E01               	movlw	1
  2548   000B40  0100               	movlb	0	; () banked
  2549   000B42  6FA4               	movwf	_apple_eaten& (0+255),b	;volatile
  2550   000B44                     l173:
  2551                           
  2552                           ;uart_layer.c: 81:             snake_updated = 1;
  2553   000B44  0E01               	movlw	1
  2554   000B46  0100               	movlb	0	; () banked
  2555   000B48  6FA2               	movwf	_snake_updated& (0+255),b	;volatile
  2556   000B4A                     
  2557                           ; BSR set to: 0
  2558                           ;uart_layer.c: 82:             uart_send_array("STATE 3\r\n", 9);
  2559   000B4A  0E33               	movlw	low STR_6
  2560   000B4C  6E28               	movwf	uart_send_array@c^0,c
  2561   000B4E  5028               	movf	uart_send_array@c^0,w,c
  2562   000B50  A4D8               	btfss	status,2,c
  2563   000B52  0E06               	movlw	high __smallconst
  2564   000B54  6E29               	movwf	(uart_send_array@c+1)^0,c
  2565   000B56  0E00               	movlw	0
  2566   000B58  6E2B               	movwf	(uart_send_array@len+1)^0,c
  2567   000B5A  0E09               	movlw	9
  2568   000B5C  6E2A               	movwf	uart_send_array@len^0,c
  2569   000B5E  ECB1  F009         	call	_uart_send_array	;wreg free
  2570   000B62                     
  2571                           ;uart_layer.c: 83:             rx_state = RX_WAIT_MSG_TYPE;
  2572   000B62  6A55               	clrf	uart_rx_from_player@rx_state^0,c	;volatile
  2573                           
  2574                           ;uart_layer.c: 84:             break;
  2575   000B64  EFCD  F005         	goto	l174
  2576   000B68                     l2414:
  2577   000B68  5055               	movf	uart_rx_from_player@rx_state^0,w,c	;volatile
  2578   000B6A  6E2F               	movwf	??_uart_rx_from_player^0,c
  2579   000B6C  6A30               	clrf	(??_uart_rx_from_player+1)^0,c
  2580                           
  2581                           ; Switch on 2 bytes has been partitioned into a top level switch of size 1, and 1 sub-sw
      +                          itches
  2582                           ; Switch size 1, requested type "simple"
  2583                           ; Number of cases is 1, Range of values is 0 to 0
  2584                           ; switch strategies available:
  2585                           ; Name         Instructions Cycles
  2586                           ; simple_byte            4     3 (average)
  2587                           ;	Chosen strategy is simple_byte
  2588   000B6E  5030               	movf	(??_uart_rx_from_player+1)^0,w,c
  2589   000B70  0A00               	xorlw	0	; case 0
  2590   000B72  B4D8               	btfsc	status,2,c
  2591   000B74  EFBE  F005         	goto	l2676
  2592   000B78  EFCD  F005         	goto	l174
  2593   000B7C                     l2676:
  2594                           
  2595                           ; Switch size 1, requested type "simple"
  2596                           ; Number of cases is 3, Range of values is 0 to 2
  2597                           ; switch strategies available:
  2598                           ; Name         Instructions Cycles
  2599                           ; simple_byte           10     6 (average)
  2600                           ;	Chosen strategy is simple_byte
  2601   000B7C  502F               	movf	??_uart_rx_from_player^0,w,c
  2602   000B7E  0A00               	xorlw	0	; case 0
  2603   000B80  B4D8               	btfsc	status,2,c
  2604   000B82  EFFF  F004         	goto	l2378
  2605   000B86  0A01               	xorlw	1	; case 1
  2606   000B88  B4D8               	btfsc	status,2,c
  2607   000B8A  EF46  F005         	goto	l168
  2608   000B8E  0A03               	xorlw	3	; case 2
  2609   000B90  B4D8               	btfsc	status,2,c
  2610   000B92  EF97  F005         	goto	l2404
  2611   000B96  EFCD  F005         	goto	l174
  2612   000B9A                     l174:
  2613   000B9A  0012               	return		;funcret
  2614   000B9C                     __end_of_uart_rx_from_player:
  2615                           	callstack 0
  2616                           
  2617 ;; *************** function _memset *****************
  2618 ;; Defined at:
  2619 ;;		line 3 in file "C:\Program Files\Microchip\xc8\v3.00\pic\sources\c99\common\memset.c"
  2620 ;; Parameters:    Size  Location     Type
  2621 ;;  dest            2   36[COMRAM] PTR void 
  2622 ;;		 -> snake_y_rx(50), snake_x_rx(50), 
  2623 ;;  c               2   38[COMRAM] int 
  2624 ;;  n               2   40[COMRAM] unsigned int 
  2625 ;; Auto vars:     Size  Location     Type
  2626 ;;  p               2   42[COMRAM] PTR unsigned char 
  2627 ;;		 -> snake_y_rx(50), snake_x_rx(50), 
  2628 ;; Return value:  Size  Location     Type
  2629 ;;                  2   36[COMRAM] PTR void 
  2630 ;; Registers used:
  2631 ;;		wreg, fsr2l, fsr2h, status,2, status,0
  2632 ;; Tracked objects:
  2633 ;;		On entry : 0/0
  2634 ;;		On exit  : 0/0
  2635 ;;		Unchanged: 0/0
  2636 ;; Data sizes:     COMRAM   BANK0   BANK1   BANK2   BANK3   BANK4   BANK5
  2637 ;;      Params:         6       0       0       0       0       0       0
  2638 ;;      Locals:         2       0       0       0       0       0       0
  2639 ;;      Temps:          0       0       0       0       0       0       0
  2640 ;;      Totals:         8       0       0       0       0       0       0
  2641 ;;Total ram usage:        8 bytes
  2642 ;; Hardware stack levels used: 1
  2643 ;; Hardware stack levels required when called: 4
  2644 ;; This function calls:
  2645 ;;		Nothing
  2646 ;; This function is called by:
  2647 ;;		_uart_rx_from_player
  2648 ;; This function uses a non-reentrant model
  2649 ;;
  2650                           
  2651                           	psect	text9
  2652   001598                     __ptext9:
  2653                           	callstack 0
  2654   001598                     _memset:
  2655                           	callstack 24
  2656   001598  C025  F02B         	movff	memset@dest,memset@p
  2657   00159C  C026  F02C         	movff	memset@dest+1,memset@p+1
  2658   0015A0  EFDA  F00A         	goto	l2284
  2659   0015A4                     l2280:
  2660   0015A4  C02B  FFD9         	movff	memset@p,fsr2l
  2661   0015A8  C02C  FFDA         	movff	memset@p+1,fsr2h
  2662   0015AC  C027  FFDF         	movff	memset@c,indf2
  2663   0015B0  4A2B               	infsnz	memset@p^0,f,c
  2664   0015B2  2A2C               	incf	(memset@p+1)^0,f,c
  2665   0015B4                     l2284:
  2666   0015B4  0629               	decf	memset@n^0,f,c
  2667   0015B6  A0D8               	btfss	status,0,c
  2668   0015B8  062A               	decf	(memset@n+1)^0,f,c
  2669   0015BA  2829               	incf	memset@n^0,w,c
  2670   0015BC  E106               	bnz	u1681
  2671   0015BE  282A               	incf	(memset@n+1)^0,w,c
  2672   0015C0  A4D8               	btfss	status,2,c
  2673   0015C2  EFE5  F00A         	goto	u1681
  2674   0015C6  EFE7  F00A         	goto	u1680
  2675   0015CA                     u1681:
  2676   0015CA  EFD2  F00A         	goto	l2280
  2677   0015CE                     u1680:
  2678   0015CE  0012               	return		;funcret
  2679   0015D0                     __end_of_memset:
  2680                           	callstack 0
  2681                           
  2682 ;; *************** function ___awdiv *****************
  2683 ;; Defined at:
  2684 ;;		line 7 in file "C:\Program Files\Microchip\xc8\v3.00\pic\sources\c99\common\awdiv.c"
  2685 ;; Parameters:    Size  Location     Type
  2686 ;;  dividend        2   36[COMRAM] int 
  2687 ;;  divisor         2   38[COMRAM] int 
  2688 ;; Auto vars:     Size  Location     Type
  2689 ;;  quotient        2   42[COMRAM] int 
  2690 ;;  sign            1   41[COMRAM] unsigned char 
  2691 ;;  counter         1   40[COMRAM] unsigned char 
  2692 ;; Return value:  Size  Location     Type
  2693 ;;                  2   36[COMRAM] int 
  2694 ;; Registers used:
  2695 ;;		wreg, status,2, status,0
  2696 ;; Tracked objects:
  2697 ;;		On entry : 0/0
  2698 ;;		On exit  : 0/0
  2699 ;;		Unchanged: 0/0
  2700 ;; Data sizes:     COMRAM   BANK0   BANK1   BANK2   BANK3   BANK4   BANK5
  2701 ;;      Params:         4       0       0       0       0       0       0
  2702 ;;      Locals:         4       0       0       0       0       0       0
  2703 ;;      Temps:          0       0       0       0       0       0       0
  2704 ;;      Totals:         8       0       0       0       0       0       0
  2705 ;;Total ram usage:        8 bytes
  2706 ;; Hardware stack levels used: 1
  2707 ;; Hardware stack levels required when called: 4
  2708 ;; This function calls:
  2709 ;;		Nothing
  2710 ;; This function is called by:
  2711 ;;		_uart_rx_from_player
  2712 ;; This function uses a non-reentrant model
  2713 ;;
  2714                           
  2715                           	psect	text10
  2716   001048                     __ptext10:
  2717                           	callstack 0
  2718   001048                     ___awdiv:
  2719                           	callstack 24
  2720   001048  6A2A               	clrf	___awdiv@sign^0,c
  2721   00104A  BE28               	btfsc	(___awdiv@divisor+1)^0,7,c
  2722   00104C  EF2C  F008         	goto	u1690
  2723   001050  EF2A  F008         	goto	u1691
  2724   001054                     u1691:
  2725   001054  EF32  F008         	goto	l2294
  2726   001058                     u1690:
  2727   001058  6C27               	negf	___awdiv@divisor^0,c
  2728   00105A  1E28               	comf	(___awdiv@divisor+1)^0,f,c
  2729   00105C  B0D8               	btfsc	status,0,c
  2730   00105E  2A28               	incf	(___awdiv@divisor+1)^0,f,c
  2731   001060  0E01               	movlw	1
  2732   001062  6E2A               	movwf	___awdiv@sign^0,c
  2733   001064                     l2294:
  2734   001064  BE26               	btfsc	(___awdiv@dividend+1)^0,7,c
  2735   001066  EF39  F008         	goto	u1700
  2736   00106A  EF37  F008         	goto	u1701
  2737   00106E                     u1701:
  2738   00106E  EF3F  F008         	goto	l2300
  2739   001072                     u1700:
  2740   001072  6C25               	negf	___awdiv@dividend^0,c
  2741   001074  1E26               	comf	(___awdiv@dividend+1)^0,f,c
  2742   001076  B0D8               	btfsc	status,0,c
  2743   001078  2A26               	incf	(___awdiv@dividend+1)^0,f,c
  2744   00107A  0E01               	movlw	1
  2745   00107C  1A2A               	xorwf	___awdiv@sign^0,f,c
  2746   00107E                     l2300:
  2747   00107E  0E00               	movlw	0
  2748   001080  6E2C               	movwf	(___awdiv@quotient+1)^0,c
  2749   001082  0E00               	movlw	0
  2750   001084  6E2B               	movwf	___awdiv@quotient^0,c
  2751   001086  5027               	movf	___awdiv@divisor^0,w,c
  2752   001088  1028               	iorwf	(___awdiv@divisor+1)^0,w,c
  2753   00108A  B4D8               	btfsc	status,2,c
  2754   00108C  EF4A  F008         	goto	u1711
  2755   001090  EF4C  F008         	goto	u1710
  2756   001094                     u1711:
  2757   001094  EF74  F008         	goto	l2322
  2758   001098                     u1710:
  2759   001098  0E01               	movlw	1
  2760   00109A  6E29               	movwf	___awdiv@counter^0,c
  2761   00109C  EF54  F008         	goto	l2308
  2762   0010A0                     l2306:
  2763   0010A0  90D8               	bcf	status,0,c
  2764   0010A2  3627               	rlcf	___awdiv@divisor^0,f,c
  2765   0010A4  3628               	rlcf	(___awdiv@divisor+1)^0,f,c
  2766   0010A6  2A29               	incf	___awdiv@counter^0,f,c
  2767   0010A8                     l2308:
  2768   0010A8  AE28               	btfss	(___awdiv@divisor+1)^0,7,c
  2769   0010AA  EF59  F008         	goto	u1721
  2770   0010AE  EF5B  F008         	goto	u1720
  2771   0010B2                     u1721:
  2772   0010B2  EF50  F008         	goto	l2306
  2773   0010B6                     u1720:
  2774   0010B6                     l2310:
  2775   0010B6  90D8               	bcf	status,0,c
  2776   0010B8  362B               	rlcf	___awdiv@quotient^0,f,c
  2777   0010BA  362C               	rlcf	(___awdiv@quotient+1)^0,f,c
  2778   0010BC  5027               	movf	___awdiv@divisor^0,w,c
  2779   0010BE  5C25               	subwf	___awdiv@dividend^0,w,c
  2780   0010C0  5028               	movf	(___awdiv@divisor+1)^0,w,c
  2781   0010C2  5826               	subwfb	(___awdiv@dividend+1)^0,w,c
  2782   0010C4  A0D8               	btfss	status,0,c
  2783   0010C6  EF67  F008         	goto	u1731
  2784   0010CA  EF69  F008         	goto	u1730
  2785   0010CE                     u1731:
  2786   0010CE  EF6E  F008         	goto	l2318
  2787   0010D2                     u1730:
  2788   0010D2  5027               	movf	___awdiv@divisor^0,w,c
  2789   0010D4  5E25               	subwf	___awdiv@dividend^0,f,c
  2790   0010D6  5028               	movf	(___awdiv@divisor+1)^0,w,c
  2791   0010D8  5A26               	subwfb	(___awdiv@dividend+1)^0,f,c
  2792   0010DA  802B               	bsf	___awdiv@quotient^0,0,c
  2793   0010DC                     l2318:
  2794   0010DC  90D8               	bcf	status,0,c
  2795   0010DE  3228               	rrcf	(___awdiv@divisor+1)^0,f,c
  2796   0010E0  3227               	rrcf	___awdiv@divisor^0,f,c
  2797   0010E2  2E29               	decfsz	___awdiv@counter^0,f,c
  2798   0010E4  EF5B  F008         	goto	l2310
  2799   0010E8                     l2322:
  2800   0010E8  502A               	movf	___awdiv@sign^0,w,c
  2801   0010EA  B4D8               	btfsc	status,2,c
  2802   0010EC  EF7A  F008         	goto	u1741
  2803   0010F0  EF7C  F008         	goto	u1740
  2804   0010F4                     u1741:
  2805   0010F4  EF80  F008         	goto	l2326
  2806   0010F8                     u1740:
  2807   0010F8  6C2B               	negf	___awdiv@quotient^0,c
  2808   0010FA  1E2C               	comf	(___awdiv@quotient+1)^0,f,c
  2809   0010FC  B0D8               	btfsc	status,0,c
  2810   0010FE  2A2C               	incf	(___awdiv@quotient+1)^0,f,c
  2811   001100                     l2326:
  2812   001100  C02B  F025         	movff	___awdiv@quotient,?___awdiv
  2813   001104  C02C  F026         	movff	___awdiv@quotient+1,?___awdiv+1
  2814   001108  0012               	return		;funcret
  2815   00110A                     __end_of___awdiv:
  2816                           	callstack 0
  2817                           
  2818 ;; *************** function _handle_game_over *****************
  2819 ;; Defined at:
  2820 ;;		line 73 in file "master.c"
  2821 ;; Parameters:    Size  Location     Type
  2822 ;;		None
  2823 ;; Auto vars:     Size  Location     Type
  2824 ;;  buff           32   18[BANK0 ] unsigned char [32]
  2825 ;; Return value:  Size  Location     Type
  2826 ;;                  1    wreg      void 
  2827 ;; Registers used:
  2828 ;;		wreg, fsr1l, fsr1h, fsr2l, fsr2h, status,2, status,0, tblptrl, tblptrh, tblptru, cstack
  2829 ;; Tracked objects:
  2830 ;;		On entry : 0/0
  2831 ;;		On exit  : 0/0
  2832 ;;		Unchanged: 0/0
  2833 ;; Data sizes:     COMRAM   BANK0   BANK1   BANK2   BANK3   BANK4   BANK5
  2834 ;;      Params:         0       0       0       0       0       0       0
  2835 ;;      Locals:         0      32       0       0       0       0       0
  2836 ;;      Temps:          0       0       0       0       0       0       0
  2837 ;;      Totals:         0      32       0       0       0       0       0
  2838 ;;Total ram usage:       32 bytes
  2839 ;; Hardware stack levels used: 1
  2840 ;; Hardware stack levels required when called: 9
  2841 ;; This function calls:
  2842 ;;		_sprintf
  2843 ;;		_strlen
  2844 ;;		_uart_send_array
  2845 ;; This function is called by:
  2846 ;;		_main
  2847 ;; This function uses a non-reentrant model
  2848 ;;
  2849                           
  2850                           	psect	text11
  2851   001662                     __ptext11:
  2852                           	callstack 0
  2853   001662                     _handle_game_over:
  2854                           	callstack 21
  2855   001662                     
  2856                           ;master.c: 75:     char buff[32];;master.c: 76:     sprintf(buff, "GAME OVER\r\n");
  2857   001662  0ED8               	movlw	low handle_game_over@buff
  2858   001664  0100               	movlb	0	; () banked
  2859   001666  6FC6               	movwf	sprintf@s& (0+255),b
  2860   001668  0E13               	movlw	low STR_8
  2861   00166A  6FC7               	movwf	sprintf@fmt& (0+255),b
  2862   00166C  ECE8  F00A         	call	_sprintf	;wreg free
  2863                           
  2864                           ;master.c: 77:     uart_send_array((uint8_t *)buff, strlen(buff));
  2865   001670  0ED8               	movlw	low handle_game_over@buff
  2866   001672  6E28               	movwf	uart_send_array@c^0,c
  2867   001674  6A29               	clrf	(uart_send_array@c+1)^0,c
  2868   001676  0ED8               	movlw	low handle_game_over@buff
  2869   001678  6E25               	movwf	strlen@s^0,c
  2870   00167A  EC04  F00B         	call	_strlen	;wreg free
  2871   00167E  C025  F02A         	movff	?_strlen,uart_send_array@len
  2872   001682  C026  F02B         	movff	?_strlen+1,uart_send_array@len+1
  2873   001686  ECB1  F009         	call	_uart_send_array	;wreg free
  2874   00168A  0012               	return		;funcret
  2875   00168C                     __end_of_handle_game_over:
  2876                           	callstack 0
  2877                           
  2878 ;; *************** function _uart_send_array *****************
  2879 ;; Defined at:
  2880 ;;		line 88 in file "uart_layer.c"
  2881 ;; Parameters:    Size  Location     Type
  2882 ;;  c               2   39[COMRAM] PTR unsigned char 
  2883 ;;		 -> handle_game_over@buff(32), send_apple_pos@buff(32), STR_6(10), STR_5(10), 
  2884 ;;		 -> STR_4(10), STR_3(7), STR_2(7), STR_1(7), 
  2885 ;;  len             2   41[COMRAM] unsigned short 
  2886 ;; Auto vars:     Size  Location     Type
  2887 ;;  i               1   45[COMRAM] unsigned char 
  2888 ;; Return value:  Size  Location     Type
  2889 ;;                  1    wreg      void 
  2890 ;; Registers used:
  2891 ;;		wreg, fsr1l, fsr1h, status,2, status,0, tblptrl, tblptrh, tblptru, cstack
  2892 ;; Tracked objects:
  2893 ;;		On entry : 0/0
  2894 ;;		On exit  : 0/0
  2895 ;;		Unchanged: 0/0
  2896 ;; Data sizes:     COMRAM   BANK0   BANK1   BANK2   BANK3   BANK4   BANK5
  2897 ;;      Params:         4       0       0       0       0       0       0
  2898 ;;      Locals:         1       0       0       0       0       0       0
  2899 ;;      Temps:          2       0       0       0       0       0       0
  2900 ;;      Totals:         7       0       0       0       0       0       0
  2901 ;;Total ram usage:        7 bytes
  2902 ;; Hardware stack levels used: 1
  2903 ;; Hardware stack levels required when called: 5
  2904 ;; This function calls:
  2905 ;;		_uart_send
  2906 ;; This function is called by:
  2907 ;;		_main
  2908 ;;		_uart_rx_from_player
  2909 ;;		_send_apple_pos
  2910 ;;		_handle_game_over
  2911 ;; This function uses a non-reentrant model
  2912 ;;
  2913                           
  2914                           	psect	text12
  2915   001362                     __ptext12:
  2916                           	callstack 0
  2917   001362                     _uart_send_array:
  2918                           	callstack 25
  2919   001362                     
  2920                           ;uart_layer.c: 89:     for(uint8_t i = 0; i < len;i++){
  2921   001362  6A2E               	clrf	uart_send_array@i^0,c
  2922   001364  EFCD  F009         	goto	l2276
  2923   001368                     l2272:
  2924                           
  2925                           ;uart_layer.c: 90:         uart_send(c[i]);
  2926   001368  502E               	movf	uart_send_array@i^0,w,c
  2927   00136A  2428               	addwf	uart_send_array@c^0,w,c
  2928   00136C  6E2C               	movwf	??_uart_send_array^0,c
  2929   00136E  0E00               	movlw	0
  2930   001370  2029               	addwfc	(uart_send_array@c+1)^0,w,c
  2931   001372  6E2D               	movwf	(??_uart_send_array+1)^0,c
  2932   001374  C02C  FFF6         	movff	??_uart_send_array,tblptrl
  2933   001378  C02D  FFF7         	movff	??_uart_send_array+1,tblptrh
  2934   00137C  6AF8               	clrf	tblptru,c
  2935   00137E  0E05               	movlw	(high __ramtop+-1)
  2936   001380  64F7               	cpfsgt	tblptrh,c
  2937   001382  D003               	bra	u1667
  2938   001384  0008               	tblrd		*
  2939   001386  50F5               	movf	tablat,w,c
  2940   001388  D005               	bra	u1660
  2941   00138A                     u1667:
  2942   00138A  CFF6 FFE1          	movff	tblptrl,fsr1l
  2943   00138E  CFF7 FFE2          	movff	tblptrh,fsr1h
  2944   001392  50E7               	movf	indf1,w,c
  2945   001394                     u1660:
  2946   001394  EC55  F00B         	call	_uart_send
  2947   001398                     
  2948                           ;uart_layer.c: 91:     }
  2949   001398  2A2E               	incf	uart_send_array@i^0,f,c
  2950   00139A                     l2276:
  2951   00139A  502E               	movf	uart_send_array@i^0,w,c
  2952   00139C  6E2C               	movwf	??_uart_send_array^0,c
  2953   00139E  6A2D               	clrf	(??_uart_send_array+1)^0,c
  2954   0013A0  502A               	movf	uart_send_array@len^0,w,c
  2955   0013A2  5C2C               	subwf	??_uart_send_array^0,w,c
  2956   0013A4  502B               	movf	(uart_send_array@len+1)^0,w,c
  2957   0013A6  582D               	subwfb	(??_uart_send_array+1)^0,w,c
  2958   0013A8  A0D8               	btfss	status,0,c
  2959   0013AA  EFD9  F009         	goto	u1671
  2960   0013AE  EFDB  F009         	goto	u1670
  2961   0013B2                     u1671:
  2962   0013B2  EFB4  F009         	goto	l2272
  2963   0013B6                     u1670:
  2964   0013B6  0012               	return		;funcret
  2965   0013B8                     __end_of_uart_send_array:
  2966                           	callstack 0
  2967                           
  2968 ;; *************** function _uart_send *****************
  2969 ;; Defined at:
  2970 ;;		line 35 in file "uart_layer.c"
  2971 ;; Parameters:    Size  Location     Type
  2972 ;;  c               1    wreg     unsigned char 
  2973 ;; Auto vars:     Size  Location     Type
  2974 ;;  c               1   36[COMRAM] unsigned char 
  2975 ;; Return value:  Size  Location     Type
  2976 ;;                  1    wreg      void 
  2977 ;; Registers used:
  2978 ;;		wreg
  2979 ;; Tracked objects:
  2980 ;;		On entry : 0/0
  2981 ;;		On exit  : 0/0
  2982 ;;		Unchanged: 0/0
  2983 ;; Data sizes:     COMRAM   BANK0   BANK1   BANK2   BANK3   BANK4   BANK5
  2984 ;;      Params:         0       0       0       0       0       0       0
  2985 ;;      Locals:         1       0       0       0       0       0       0
  2986 ;;      Temps:          0       0       0       0       0       0       0
  2987 ;;      Totals:         1       0       0       0       0       0       0
  2988 ;;Total ram usage:        1 bytes
  2989 ;; Hardware stack levels used: 1
  2990 ;; Hardware stack levels required when called: 4
  2991 ;; This function calls:
  2992 ;;		Nothing
  2993 ;; This function is called by:
  2994 ;;		_uart_send_array
  2995 ;; This function uses a non-reentrant model
  2996 ;;
  2997                           
  2998                           	psect	text13
  2999   0016AA                     __ptext13:
  3000                           	callstack 0
  3001   0016AA                     _uart_send:
  3002                           	callstack 25
  3003                           
  3004                           ;incstack = 0
  3005                           ;uart_send@c stored from wreg
  3006   0016AA  6E25               	movwf	uart_send@c^0,c
  3007   0016AC                     
  3008                           ;uart_layer.c: 36:     while(TXSTAbits.TRMT==0){
  3009   0016AC  EF59  F00B         	goto	l153
  3010   0016B0                     l154:
  3011                           
  3012                           ;uart_layer.c: 37:         __nop();
  3013   0016B0  0000               	nop	
  3014   0016B2                     l153:
  3015                           
  3016                           ;uart_layer.c: 36:     while(TXSTAbits.TRMT==0){
  3017   0016B2  A2AC               	btfss	172,1,c	;volatile
  3018   0016B4  EF5E  F00B         	goto	u1551
  3019   0016B8  EF60  F00B         	goto	u1550
  3020   0016BC                     u1551:
  3021   0016BC  EF58  F00B         	goto	l154
  3022   0016C0                     u1550:
  3023   0016C0                     
  3024                           ;uart_layer.c: 39:     TXREG = c;
  3025   0016C0  C025  FFAD         	movff	uart_send@c,4013	;volatile
  3026   0016C4  0012               	return		;funcret
  3027   0016C6                     __end_of_uart_send:
  3028                           	callstack 0
  3029                           
  3030 ;; *************** function _strlen *****************
  3031 ;; Defined at:
  3032 ;;		line 5 in file "C:\Program Files\Microchip\xc8\v3.00\pic\sources\c99\common\strlen.c"
  3033 ;; Parameters:    Size  Location     Type
  3034 ;;  s               1   36[COMRAM] PTR const unsigned char 
  3035 ;;		 -> handle_game_over@buff(32), send_apple_pos@buff(32), uart_rx_buf(32), 
  3036 ;; Auto vars:     Size  Location     Type
  3037 ;;  a               1   38[COMRAM] PTR const unsigned char 
  3038 ;;		 -> handle_game_over@buff(32), send_apple_pos@buff(32), uart_rx_buf(32), 
  3039 ;; Return value:  Size  Location     Type
  3040 ;;                  2   36[COMRAM] unsigned int 
  3041 ;; Registers used:
  3042 ;;		wreg, fsr2l, fsr2h, status,2, status,0
  3043 ;; Tracked objects:
  3044 ;;		On entry : 0/0
  3045 ;;		On exit  : 0/0
  3046 ;;		Unchanged: 0/0
  3047 ;; Data sizes:     COMRAM   BANK0   BANK1   BANK2   BANK3   BANK4   BANK5
  3048 ;;      Params:         2       0       0       0       0       0       0
  3049 ;;      Locals:         1       0       0       0       0       0       0
  3050 ;;      Temps:          0       0       0       0       0       0       0
  3051 ;;      Totals:         3       0       0       0       0       0       0
  3052 ;;Total ram usage:        3 bytes
  3053 ;; Hardware stack levels used: 1
  3054 ;; Hardware stack levels required when called: 4
  3055 ;; This function calls:
  3056 ;;		Nothing
  3057 ;; This function is called by:
  3058 ;;		_send_apple_pos
  3059 ;;		_handle_game_over
  3060 ;;		_parse_command_from_pc
  3061 ;; This function uses a non-reentrant model
  3062 ;;
  3063                           
  3064                           	psect	text14
  3065   001608                     __ptext14:
  3066                           	callstack 0
  3067   001608                     _strlen:
  3068                           	callstack 25
  3069   001608  C025  F027         	movff	strlen@s,strlen@a
  3070   00160C  EF09  F00B         	goto	l2462
  3071   001610                     l2460:
  3072   001610  2A25               	incf	strlen@s^0,f,c
  3073   001612                     l2462:
  3074   001612  5025               	movf	strlen@s^0,w,c
  3075   001614  6ED9               	movwf	fsr2l,c
  3076   001616  6ADA               	clrf	fsr2h,c
  3077   001618  50DF               	movf	indf2,w,c
  3078   00161A  A4D8               	btfss	status,2,c
  3079   00161C  EF12  F00B         	goto	u1881
  3080   001620  EF14  F00B         	goto	u1880
  3081   001624                     u1881:
  3082   001624  EF08  F00B         	goto	l2460
  3083   001628                     u1880:
  3084   001628  5027               	movf	strlen@a^0,w,c
  3085   00162A  5C25               	subwf	strlen@s^0,w,c
  3086   00162C  6E25               	movwf	?_strlen^0,c
  3087   00162E  6A26               	clrf	(?_strlen+1)^0,c
  3088   001630  BE25               	btfsc	?_strlen^0,7,c
  3089   001632  0626               	decf	(?_strlen+1)^0,f,c
  3090   001634  0012               	return		;funcret
  3091   001636                     __end_of_strlen:
  3092                           	callstack 0
  3093                           
  3094 ;; *************** function _sprintf *****************
  3095 ;; Defined at:
  3096 ;;		line 9 in file "C:\Program Files\Microchip\xc8\v3.00\pic\sources\c99\common\nf_sprintf.c"
  3097 ;; Parameters:    Size  Location     Type
  3098 ;;  s               1    0[BANK0 ] PTR unsigned char 
  3099 ;;		 -> handle_game_over@buff(32), send_apple_pos@buff(32), 
  3100 ;;  fmt             1    1[BANK0 ] PTR const unsigned char 
  3101 ;;		 -> STR_8(12), STR_7(18), 
  3102 ;; Auto vars:     Size  Location     Type
  3103 ;;  f              11    7[BANK0 ] struct _IO_FILE
  3104 ;;  ret             2    0        int 
  3105 ;;  ap              1    6[BANK0 ] PTR void [1]
  3106 ;;		 -> ?_sprintf(2), 
  3107 ;; Return value:  Size  Location     Type
  3108 ;;                  2    0[BANK0 ] int 
  3109 ;; Registers used:
  3110 ;;		wreg, fsr1l, fsr1h, fsr2l, fsr2h, status,2, status,0, tblptrl, tblptrh, tblptru, cstack
  3111 ;; Tracked objects:
  3112 ;;		On entry : 0/0
  3113 ;;		On exit  : 0/0
  3114 ;;		Unchanged: 0/0
  3115 ;; Data sizes:     COMRAM   BANK0   BANK1   BANK2   BANK3   BANK4   BANK5
  3116 ;;      Params:         0       6       0       0       0       0       0
  3117 ;;      Locals:         0      12       0       0       0       0       0
  3118 ;;      Temps:          0       0       0       0       0       0       0
  3119 ;;      Totals:         0      18       0       0       0       0       0
  3120 ;;Total ram usage:       18 bytes
  3121 ;; Hardware stack levels used: 1
  3122 ;; Hardware stack levels required when called: 8
  3123 ;; This function calls:
  3124 ;;		_vfprintf
  3125 ;; This function is called by:
  3126 ;;		_send_apple_pos
  3127 ;;		_handle_game_over
  3128 ;; This function uses a non-reentrant model
  3129 ;;
  3130                           
  3131                           	psect	text15
  3132   0015D0                     __ptext15:
  3133                           	callstack 0
  3134   0015D0                     _sprintf:
  3135                           	callstack 21
  3136   0015D0  0EC8               	movlw	low (?_sprintf+2)
  3137   0015D2  0100               	movlb	0	; () banked
  3138   0015D4  6FCC               	movwf	sprintf@ap& (0+255),b
  3139   0015D6  C0C6  F0CD         	movff	sprintf@s,sprintf@f
  3140   0015DA                     
  3141                           ; BSR set to: 0
  3142   0015DA  0E00               	movlw	0
  3143   0015DC  6FD0               	movwf	(sprintf@f+3)& (0+255),b
  3144   0015DE  0E00               	movlw	0
  3145   0015E0  6FCF               	movwf	(sprintf@f+2)& (0+255),b
  3146   0015E2                     
  3147                           ; BSR set to: 0
  3148   0015E2  0E00               	movlw	0
  3149   0015E4  6FD7               	movwf	(sprintf@f+10)& (0+255),b
  3150   0015E6  0E00               	movlw	0
  3151   0015E8  6FD6               	movwf	(sprintf@f+9)& (0+255),b
  3152   0015EA                     
  3153                           ; BSR set to: 0
  3154   0015EA  0ECD               	movlw	low sprintf@f
  3155   0015EC  6E46               	movwf	vfprintf@fp^0,c
  3156   0015EE  C0C7  F047         	movff	sprintf@fmt,vfprintf@fmt
  3157   0015F2  0ECC               	movlw	low sprintf@ap
  3158   0015F4  6E48               	movwf	vfprintf@ap^0,c
  3159   0015F6  EC74  F00A         	call	_vfprintf	;wreg free
  3160   0015FA  0100               	movlb	0	; () banked
  3161   0015FC  51C6               	movf	sprintf@s& (0+255),w,b
  3162   0015FE  25CF               	addwf	(sprintf@f+2)& (0+255),w,b
  3163   001600  6ED9               	movwf	fsr2l,c
  3164   001602  6ADA               	clrf	fsr2h,c
  3165   001604  6ADF               	clrf	indf2,c
  3166   001606                     
  3167                           ; BSR set to: 0
  3168   001606  0012               	return		;funcret
  3169   001608                     __end_of_sprintf:
  3170                           	callstack 0
  3171                           
  3172 ;; *************** function _vfprintf *****************
  3173 ;; Defined at:
  3174 ;;		line 1817 in file "C:\Program Files\Microchip\xc8\v3.00\pic\sources\c99\common\doprnt.c"
  3175 ;; Parameters:    Size  Location     Type
  3176 ;;  fp              1   69[COMRAM] PTR struct _IO_FILE
  3177 ;;		 -> sprintf@f(11), 
  3178 ;;  fmt             1   70[COMRAM] PTR const unsigned char 
  3179 ;;		 -> STR_8(12), STR_7(18), 
  3180 ;;  ap              1   71[COMRAM] PTR PTR void 
  3181 ;;		 -> sprintf@ap(1), 
  3182 ;; Auto vars:     Size  Location     Type
  3183 ;;  cfmt            1   72[COMRAM] PTR unsigned char 
  3184 ;;		 -> STR_8(12), STR_7(18), 
  3185 ;; Return value:  Size  Location     Type
  3186 ;;                  2   69[COMRAM] int 
  3187 ;; Registers used:
  3188 ;;		wreg, fsr1l, fsr1h, fsr2l, fsr2h, status,2, status,0, tblptrl, tblptrh, tblptru, cstack
  3189 ;; Tracked objects:
  3190 ;;		On entry : 0/0
  3191 ;;		On exit  : 0/0
  3192 ;;		Unchanged: 0/0
  3193 ;; Data sizes:     COMRAM   BANK0   BANK1   BANK2   BANK3   BANK4   BANK5
  3194 ;;      Params:         3       0       0       0       0       0       0
  3195 ;;      Locals:         1       0       0       0       0       0       0
  3196 ;;      Temps:          0       0       0       0       0       0       0
  3197 ;;      Totals:         4       0       0       0       0       0       0
  3198 ;;Total ram usage:        4 bytes
  3199 ;; Hardware stack levels used: 1
  3200 ;; Hardware stack levels required when called: 7
  3201 ;; This function calls:
  3202 ;;		_vfpfcnvrt
  3203 ;; This function is called by:
  3204 ;;		_sprintf
  3205 ;; This function uses a non-reentrant model
  3206 ;;
  3207                           
  3208                           	psect	text16
  3209   0014E8                     __ptext16:
  3210                           	callstack 0
  3211   0014E8                     _vfprintf:
  3212                           	callstack 21
  3213   0014E8                     
  3214                           ;C:\Program Files\Microchip\xc8\v3.00\pic\sources\c99\common\doprnt.c: 1817: int vfprint
      +                          f(FILE *fp, const char *fmt, va_list ap);C:\Program Files\Microchip\xc8\v3.00\pic\source
      +                          s\c99\common\doprnt.c: 1818: {;C:\Program Files\Microchip\xc8\v3.00\pic\sources\c99\comm
      +                          on\doprnt.c: 1820:     char *cfmt;;C:\Program Files\Microchip\xc8\v3.00\pic\sources\c99\
      +                          common\doprnt.c: 1822:     cfmt = (char *)fmt;
  3215   0014E8  C047  F049         	movff	vfprintf@fmt,vfprintf@cfmt
  3216                           
  3217                           ;C:\Program Files\Microchip\xc8\v3.00\pic\sources\c99\common\doprnt.c: 1826:     while (
      +                          *cfmt) {
  3218   0014EC  EF80  F00A         	goto	l2434
  3219   0014F0                     l2432:
  3220                           
  3221                           ;C:\Program Files\Microchip\xc8\v3.00\pic\sources\c99\common\doprnt.c: 1830:    vfpfcnvr
      +                          t(fp, &cfmt, ap);
  3222   0014F0  C046  F03C         	movff	vfprintf@fp,vfpfcnvrt@fp
  3223   0014F4  0E49               	movlw	low vfprintf@cfmt
  3224   0014F6  6E3D               	movwf	vfpfcnvrt@fmt^0,c
  3225   0014F8  C048  F03E         	movff	vfprintf@ap,vfpfcnvrt@ap
  3226   0014FC  EC8C  F006         	call	_vfpfcnvrt	;wreg free
  3227   001500                     l2434:
  3228                           
  3229                           ;C:\Program Files\Microchip\xc8\v3.00\pic\sources\c99\common\doprnt.c: 1826:     while (
      +                          *cfmt) {
  3230   001500  C049  FFF6         	movff	vfprintf@cfmt,tblptrl
  3231   001504                     	if	1	;There is more than 1 active tblptr byte
  3232   001504  0E06               	movlw	high __smallconst
  3233   001506  6EF7               	movwf	tblptrh,c
  3234   001508                     	endif
  3235   001508                     	if	0	;tblptru may be non-zero
  3236   001508                     	endif
  3237   001508                     	if	0	;tblptru may be non-zero
  3238   001508                     	endif
  3239   001508  0008               	tblrd		*
  3240   00150A  50F5               	movf	tablat,w,c
  3241   00150C  0900               	iorlw	0
  3242   00150E  A4D8               	btfss	status,2,c
  3243   001510  EF8C  F00A         	goto	u1861
  3244   001514  EF8E  F00A         	goto	u1860
  3245   001518                     u1861:
  3246   001518  EF78  F00A         	goto	l2432
  3247   00151C                     u1860:
  3248   00151C                     
  3249                           ;C:\Program Files\Microchip\xc8\v3.00\pic\sources\c99\common\doprnt.c: 1835:  return 0;
  3250   00151C  0E00               	movlw	0
  3251   00151E  6E47               	movwf	(?_vfprintf+1)^0,c
  3252   001520  0E00               	movlw	0
  3253   001522  6E46               	movwf	?_vfprintf^0,c
  3254   001524  0012               	return		;funcret
  3255   001526                     __end_of_vfprintf:
  3256                           	callstack 0
  3257                           
  3258 ;; *************** function _vfpfcnvrt *****************
  3259 ;; Defined at:
  3260 ;;		line 1177 in file "C:\Program Files\Microchip\xc8\v3.00\pic\sources\c99\common\doprnt.c"
  3261 ;; Parameters:    Size  Location     Type
  3262 ;;  fp              1   59[COMRAM] PTR struct _IO_FILE
  3263 ;;		 -> sprintf@f(11), 
  3264 ;;  fmt             1   60[COMRAM] PTR PTR unsigned char 
  3265 ;;		 -> vfprintf@cfmt(1), 
  3266 ;;  ap              1   61[COMRAM] PTR PTR void 
  3267 ;;		 -> sprintf@ap(1), 
  3268 ;; Auto vars:     Size  Location     Type
  3269 ;;  convarg         4   63[COMRAM] struct .
  3270 ;;  c               1   68[COMRAM] unsigned char 
  3271 ;;  cp              1   67[COMRAM] PTR unsigned char 
  3272 ;;		 -> STR_8(12), STR_7(18), 
  3273 ;;  done            1    0        _Bool 
  3274 ;; Return value:  Size  Location     Type
  3275 ;;                  1    wreg      void 
  3276 ;; Registers used:
  3277 ;;		wreg, fsr1l, fsr1h, fsr2l, fsr2h, status,2, status,0, tblptrl, tblptrh, tblptru, cstack
  3278 ;; Tracked objects:
  3279 ;;		On entry : 0/0
  3280 ;;		On exit  : 0/0
  3281 ;;		Unchanged: 0/0
  3282 ;; Data sizes:     COMRAM   BANK0   BANK1   BANK2   BANK3   BANK4   BANK5
  3283 ;;      Params:         3       0       0       0       0       0       0
  3284 ;;      Locals:         6       0       0       0       0       0       0
  3285 ;;      Temps:          1       0       0       0       0       0       0
  3286 ;;      Totals:        10       0       0       0       0       0       0
  3287 ;;Total ram usage:       10 bytes
  3288 ;; Hardware stack levels used: 1
  3289 ;; Hardware stack levels required when called: 6
  3290 ;; This function calls:
  3291 ;;		___lwdiv
  3292 ;;		___lwmod
  3293 ;;		_fputc
  3294 ;; This function is called by:
  3295 ;;		_vfprintf
  3296 ;; This function uses a non-reentrant model
  3297 ;;
  3298                           
  3299                           	psect	text17
  3300   000D18                     __ptext17:
  3301                           	callstack 0
  3302   000D18                     _vfpfcnvrt:
  3303                           	callstack 21
  3304   000D18                     
  3305                           ;C:\Program Files\Microchip\xc8\v3.00\pic\sources\c99\common\doprnt.c: 1177: vfpfcnvrt(F
      +                          ILE *fp, char *fmt[], va_list ap);C:\Program Files\Microchip\xc8\v3.00\pic\sources\c99\c
      +                          ommon\doprnt.c: 1178: {;C:\Program Files\Microchip\xc8\v3.00\pic\sources\c99\common\dopr
      +                          nt.c: 1179:     char c, *cp;;C:\Program Files\Microchip\xc8\v3.00\pic\sources\c99\common
      +                          \doprnt.c: 1180:     _Bool done;;C:\Program Files\Microchip\xc8\v3.00\pic\sources\c99\co
      +                          mmon\doprnt.c: 1188:  } convarg;;C:\Program Files\Microchip\xc8\v3.00\pic\sources\c99\co
      +                          mmon\doprnt.c: 1201:     if ((*fmt)[0] == '%') {
  3306   000D18  503D               	movf	vfpfcnvrt@fmt^0,w,c
  3307   000D1A  6ED9               	movwf	fsr2l,c
  3308   000D1C  6ADA               	clrf	fsr2h,c
  3309   000D1E  CFDF FFF6          	movff	indf2,tblptrl
  3310   000D22                     	if	1	;There is more than 1 active tblptr byte
  3311   000D22  0E06               	movlw	high __smallconst
  3312   000D24  6EF7               	movwf	tblptrh,c
  3313   000D26                     	endif
  3314   000D26                     	if	0	;tblptru may be non-zero
  3315   000D26                     	endif
  3316   000D26                     	if	0	;tblptru may be non-zero
  3317   000D26                     	endif
  3318   000D26  0008               	tblrd		*
  3319   000D28  50F5               	movf	tablat,w,c
  3320   000D2A  0A25               	xorlw	37
  3321   000D2C  A4D8               	btfss	status,2,c
  3322   000D2E  EF9B  F006         	goto	u1751
  3323   000D32  EF9D  F006         	goto	u1750
  3324   000D36                     u1751:
  3325   000D36  EF2F  F007         	goto	l2370
  3326   000D3A                     u1750:
  3327   000D3A                     
  3328                           ;C:\Program Files\Microchip\xc8\v3.00\pic\sources\c99\common\doprnt.c: 1202:         ++*
      +                          fmt;
  3329   000D3A  503D               	movf	vfpfcnvrt@fmt^0,w,c
  3330   000D3C  6ED9               	movwf	fsr2l,c
  3331   000D3E  6ADA               	clrf	fsr2h,c
  3332   000D40  2ADF               	incf	indf2,f,c
  3333   000D42                     
  3334                           ;C:\Program Files\Microchip\xc8\v3.00\pic\sources\c99\common\doprnt.c: 1204:         fla
      +                          gs = width = 0;
  3335   000D42  0E00               	movlw	0
  3336   000D44  6E4E               	movwf	(_width+1)^0,c
  3337   000D46  0E00               	movlw	0
  3338   000D48  6E4D               	movwf	_width^0,c
  3339   000D4A  C04D  F053         	movff	_width,_flags
  3340   000D4E                     
  3341                           ;C:\Program Files\Microchip\xc8\v3.00\pic\sources\c99\common\doprnt.c: 1205:         pre
      +                          c = -1;
  3342   000D4E  684F               	setf	_prec^0,c
  3343   000D50  6850               	setf	(_prec+1)^0,c
  3344   000D52                     
  3345                           ;C:\Program Files\Microchip\xc8\v3.00\pic\sources\c99\common\doprnt.c: 1439:   if (0
  3346   000D52  503D               	movf	vfpfcnvrt@fmt^0,w,c
  3347   000D54  6ED9               	movwf	fsr2l,c
  3348   000D56  6ADA               	clrf	fsr2h,c
  3349   000D58  50DF               	movf	indf2,w,c
  3350   000D5A  6E44               	movwf	vfpfcnvrt@cp^0,c
  3351   000D5C  C044  FFF6         	movff	vfpfcnvrt@cp,tblptrl
  3352   000D60                     	if	1	;There is more than 1 active tblptr byte
  3353   000D60  0E06               	movlw	high __smallconst
  3354   000D62  6EF7               	movwf	tblptrh,c
  3355   000D64                     	endif
  3356   000D64                     	if	0	;tblptru may be non-zero
  3357   000D64                     	endif
  3358   000D64                     	if	0	;tblptru may be non-zero
  3359   000D64                     	endif
  3360   000D64  0008               	tblrd		*
  3361   000D66  50F5               	movf	tablat,w,c
  3362   000D68  0A75               	xorlw	117
  3363   000D6A  A4D8               	btfss	status,2,c
  3364   000D6C  EFBA  F006         	goto	u1761
  3365   000D70  EFBC  F006         	goto	u1760
  3366   000D74                     u1761:
  3367   000D74  EF29  F007         	goto	l2366
  3368   000D78                     u1760:
  3369   000D78                     
  3370                           ;C:\Program Files\Microchip\xc8\v3.00\pic\sources\c99\common\doprnt.c: 1452:     ) {;C:\
      +                          Program Files\Microchip\xc8\v3.00\pic\sources\c99\common\doprnt.c: 1495:    convarg.uint
      +                           = (vfpf_uint_t)(unsigned int)(*(unsigned int *)__va_arg(*(unsigned int **)ap, (unsigned
      +                           int)0));
  3371   000D78  503E               	movf	vfpfcnvrt@ap^0,w,c
  3372   000D7A  6ED9               	movwf	fsr2l,c
  3373   000D7C  6ADA               	clrf	fsr2h,c
  3374   000D7E  0E02               	movlw	2
  3375   000D80  26DF               	addwf	indf2,f,c
  3376   000D82  5CDF               	subwf	indf2,w,c
  3377   000D84  6ED9               	movwf	fsr2l,c
  3378   000D86  6ADA               	clrf	fsr2h,c
  3379   000D88  CFDE F040          	movff	postinc2,vfpfcnvrt@convarg
  3380   000D8C  CFDE F041          	movff	postinc2,vfpfcnvrt@convarg+1
  3381   000D90                     
  3382                           ;C:\Program Files\Microchip\xc8\v3.00\pic\sources\c99\common\doprnt.c: 1497:    *fmt = c
      +                          p+1;
  3383   000D90  503D               	movf	vfpfcnvrt@fmt^0,w,c
  3384   000D92  6ED9               	movwf	fsr2l,c
  3385   000D94  6ADA               	clrf	fsr2h,c
  3386   000D96  2844               	incf	vfpfcnvrt@cp^0,w,c
  3387   000D98  6EDF               	movwf	indf2,c
  3388                           
  3389                           ;C:\Program Files\Microchip\xc8\v3.00\pic\sources\c99\common\doprnt.c: 1498:    switch (
      +                          *cp) {
  3390   000D9A  EF1D  F007         	goto	l2364
  3391   000D9E                     l2346:
  3392                           
  3393                           ;C:\Program Files\Microchip\xc8\v3.00\pic\sources\c99\common\doprnt.c: 1525:      c = si
      +                          zeof(dbuf);
  3394   000D9E  0E20               	movlw	32
  3395   000DA0  6E45               	movwf	vfpfcnvrt@c^0,c
  3396   000DA2                     l2348:
  3397                           
  3398                           ;C:\Program Files\Microchip\xc8\v3.00\pic\sources\c99\common\doprnt.c: 1527:       dbuf[
      +                          --c] = (convarg.uint % 10) + '0';
  3399   000DA2  0645               	decf	vfpfcnvrt@c^0,f,c
  3400   000DA4  5045               	movf	vfpfcnvrt@c^0,w,c
  3401   000DA6  0F80               	addlw	low _dbuf
  3402   000DA8  6ED9               	movwf	fsr2l,c
  3403   000DAA  6ADA               	clrf	fsr2h,c
  3404   000DAC  C040  F037         	movff	vfpfcnvrt@convarg,___lwmod@dividend
  3405   000DB0  C041  F038         	movff	vfpfcnvrt@convarg+1,___lwmod@dividend+1
  3406   000DB4  0E00               	movlw	0
  3407   000DB6  6E3A               	movwf	(___lwmod@divisor+1)^0,c
  3408   000DB8  0E0A               	movlw	10
  3409   000DBA  6E39               	movwf	___lwmod@divisor^0,c
  3410   000DBC  EC7F  F009         	call	___lwmod	;wreg free
  3411   000DC0  5037               	movf	?___lwmod^0,w,c
  3412   000DC2  0F30               	addlw	48
  3413   000DC4  6EDF               	movwf	indf2,c
  3414   000DC6                     
  3415                           ;C:\Program Files\Microchip\xc8\v3.00\pic\sources\c99\common\doprnt.c: 1528:       conva
      +                          rg.uint /= 10;
  3416   000DC6  C040  F025         	movff	vfpfcnvrt@convarg,___lwdiv@dividend
  3417   000DCA  C041  F026         	movff	vfpfcnvrt@convarg+1,___lwdiv@dividend+1
  3418   000DCE  0E00               	movlw	0
  3419   000DD0  6E28               	movwf	(___lwdiv@divisor+1)^0,c
  3420   000DD2  0E0A               	movlw	10
  3421   000DD4  6E27               	movwf	___lwdiv@divisor^0,c
  3422   000DD6  ECDA  F008         	call	___lwdiv	;wreg free
  3423   000DDA  C025  F040         	movff	?___lwdiv,vfpfcnvrt@convarg
  3424   000DDE  C026  F041         	movff	?___lwdiv+1,vfpfcnvrt@convarg+1
  3425   000DE2                     
  3426                           ;C:\Program Files\Microchip\xc8\v3.00\pic\sources\c99\common\doprnt.c: 1532:      } whil
      +                          e (convarg.uint != 0 && c != 0);
  3427   000DE2  5040               	movf	vfpfcnvrt@convarg^0,w,c
  3428   000DE4  1041               	iorwf	(vfpfcnvrt@convarg+1)^0,w,c
  3429   000DE6  B4D8               	btfsc	status,2,c
  3430   000DE8  EFF8  F006         	goto	u1771
  3431   000DEC  EFFA  F006         	goto	u1770
  3432   000DF0                     u1771:
  3433   000DF0  EF12  F007         	goto	l2360
  3434   000DF4                     u1770:
  3435   000DF4  5045               	movf	vfpfcnvrt@c^0,w,c
  3436   000DF6  A4D8               	btfss	status,2,c
  3437   000DF8  EF00  F007         	goto	u1781
  3438   000DFC  EF02  F007         	goto	u1780
  3439   000E00                     u1781:
  3440   000E00  EFD1  F006         	goto	l2348
  3441   000E04                     u1780:
  3442   000E04  EF12  F007         	goto	l2360
  3443   000E08                     l2356:
  3444                           
  3445                           ;C:\Program Files\Microchip\xc8\v3.00\pic\sources\c99\common\doprnt.c: 1534:       fputc
      +                          (dbuf[c++], fp);
  3446   000E08  5045               	movf	vfpfcnvrt@c^0,w,c
  3447   000E0A  0F80               	addlw	low _dbuf
  3448   000E0C  6ED9               	movwf	fsr2l,c
  3449   000E0E  6ADA               	clrf	fsr2h,c
  3450   000E10  50DF               	movf	indf2,w,c
  3451   000E12  6E3F               	movwf	??_vfpfcnvrt^0,c
  3452   000E14  503F               	movf	??_vfpfcnvrt^0,w,c
  3453   000E16  6E25               	movwf	fputc@c^0,c
  3454   000E18  6A26               	clrf	(fputc@c+1)^0,c
  3455   000E1A  C03C  F027         	movff	vfpfcnvrt@fp,fputc@fp
  3456   000E1E  EC85  F008         	call	_fputc	;wreg free
  3457   000E22  2A45               	incf	vfpfcnvrt@c^0,f,c
  3458   000E24                     l2360:
  3459                           
  3460                           ;C:\Program Files\Microchip\xc8\v3.00\pic\sources\c99\common\doprnt.c: 1533:      while 
      +                          (c != sizeof(dbuf)) {
  3461   000E24  0E20               	movlw	32
  3462   000E26  1845               	xorwf	vfpfcnvrt@c^0,w,c
  3463   000E28  A4D8               	btfss	status,2,c
  3464   000E2A  EF19  F007         	goto	u1791
  3465   000E2E  EF1B  F007         	goto	u1790
  3466   000E32                     u1791:
  3467   000E32  EF04  F007         	goto	l2356
  3468   000E36                     u1790:
  3469   000E36  EF40  F007         	goto	l974
  3470   000E3A                     l2364:
  3471   000E3A  C044  FFF6         	movff	vfpfcnvrt@cp,tblptrl
  3472   000E3E                     	if	1	;There is more than 1 active tblptr byte
  3473   000E3E  0E06               	movlw	high __smallconst
  3474   000E40  6EF7               	movwf	tblptrh,c
  3475   000E42                     	endif
  3476   000E42                     	if	0	;tblptru may be non-zero
  3477   000E42                     	endif
  3478   000E42                     	if	0	;tblptru may be non-zero
  3479   000E42                     	endif
  3480   000E42  0008               	tblrd		*
  3481   000E44  50F5               	movf	tablat,w,c
  3482                           
  3483                           ; Switch size 1, requested type "simple"
  3484                           ; Number of cases is 1, Range of values is 117 to 117
  3485                           ; switch strategies available:
  3486                           ; Name         Instructions Cycles
  3487                           ; simple_byte            4     3 (average)
  3488                           ;	Chosen strategy is simple_byte
  3489   000E46  0A75               	xorlw	117	; case 117
  3490   000E48  B4D8               	btfsc	status,2,c
  3491   000E4A  EFCF  F006         	goto	l2346
  3492   000E4E  EF29  F007         	goto	l2366
  3493   000E52                     l2366:
  3494                           
  3495                           ;C:\Program Files\Microchip\xc8\v3.00\pic\sources\c99\common\doprnt.c: 1806:         ++*
      +                          fmt;
  3496   000E52  503D               	movf	vfpfcnvrt@fmt^0,w,c
  3497   000E54  6ED9               	movwf	fsr2l,c
  3498   000E56  6ADA               	clrf	fsr2h,c
  3499   000E58  2ADF               	incf	indf2,f,c
  3500   000E5A  EF40  F007         	goto	l974
  3501   000E5E                     l2370:
  3502                           
  3503                           ;C:\Program Files\Microchip\xc8\v3.00\pic\sources\c99\common\doprnt.c: 1811:     fputc((
      +                          int)(*fmt)[0], fp);
  3504   000E5E  503D               	movf	vfpfcnvrt@fmt^0,w,c
  3505   000E60  6ED9               	movwf	fsr2l,c
  3506   000E62  6ADA               	clrf	fsr2h,c
  3507   000E64  CFDF FFF6          	movff	indf2,tblptrl
  3508   000E68                     	if	1	;There is more than 1 active tblptr byte
  3509   000E68  0E06               	movlw	high __smallconst
  3510   000E6A  6EF7               	movwf	tblptrh,c
  3511   000E6C                     	endif
  3512   000E6C                     	if	0	;tblptru may be non-zero
  3513   000E6C                     	endif
  3514   000E6C                     	if	0	;tblptru may be non-zero
  3515   000E6C                     	endif
  3516   000E6C  0008               	tblrd		*
  3517   000E6E  50F5               	movf	tablat,w,c
  3518   000E70  6E25               	movwf	fputc@c^0,c
  3519   000E72  6A26               	clrf	(fputc@c+1)^0,c
  3520   000E74  C03C  F027         	movff	vfpfcnvrt@fp,fputc@fp
  3521   000E78  EC85  F008         	call	_fputc	;wreg free
  3522   000E7C  EF29  F007         	goto	l2366
  3523   000E80                     l974:
  3524   000E80  0012               	return		;funcret
  3525   000E82                     __end_of_vfpfcnvrt:
  3526                           	callstack 0
  3527                           
  3528 ;; *************** function _fputc *****************
  3529 ;; Defined at:
  3530 ;;		line 8 in file "C:\Program Files\Microchip\xc8\v3.00\pic\sources\c99\common\nf_fputc.c"
  3531 ;; Parameters:    Size  Location     Type
  3532 ;;  c               2   36[COMRAM] int 
  3533 ;;  fp              1   38[COMRAM] PTR struct _IO_FILE
  3534 ;;		 -> sprintf@f(11), 
  3535 ;; Auto vars:     Size  Location     Type
  3536 ;;		None
  3537 ;; Return value:  Size  Location     Type
  3538 ;;                  2   36[COMRAM] int 
  3539 ;; Registers used:
  3540 ;;		wreg, fsr1l, fsr1h, fsr2l, fsr2h, status,2, status,0, cstack
  3541 ;; Tracked objects:
  3542 ;;		On entry : 0/0
  3543 ;;		On exit  : 0/0
  3544 ;;		Unchanged: 0/0
  3545 ;; Data sizes:     COMRAM   BANK0   BANK1   BANK2   BANK3   BANK4   BANK5
  3546 ;;      Params:         3       0       0       0       0       0       0
  3547 ;;      Locals:         0       0       0       0       0       0       0
  3548 ;;      Temps:          5       0       0       0       0       0       0
  3549 ;;      Totals:         8       0       0       0       0       0       0
  3550 ;;Total ram usage:        8 bytes
  3551 ;; Hardware stack levels used: 1
  3552 ;; Hardware stack levels required when called: 5
  3553 ;; This function calls:
  3554 ;;		_putch
  3555 ;; This function is called by:
  3556 ;;		_vfpfcnvrt
  3557 ;; This function uses a non-reentrant model
  3558 ;;
  3559                           
  3560                           	psect	text18
  3561   00110A                     __ptext18:
  3562                           	callstack 0
  3563   00110A                     _fputc:
  3564                           	callstack 21
  3565   00110A  5027               	movf	fputc@fp^0,w,c
  3566   00110C  B4D8               	btfsc	status,2,c
  3567   00110E  EF8B  F008         	goto	u1621
  3568   001112  EF8D  F008         	goto	u1620
  3569   001116                     u1621:
  3570   001116  EF95  F008         	goto	l2260
  3571   00111A                     u1620:
  3572   00111A  5027               	movf	fputc@fp^0,w,c
  3573   00111C  A4D8               	btfss	status,2,c
  3574   00111E  EF93  F008         	goto	u1631
  3575   001122  EF95  F008         	goto	u1630
  3576   001126                     u1631:
  3577   001126  EF9A  F008         	goto	l2262
  3578   00112A                     u1630:
  3579   00112A                     l2260:
  3580   00112A  5025               	movf	fputc@c^0,w,c
  3581   00112C  EC7E  F00B         	call	_putch
  3582   001130  EFD9  F008         	goto	l993
  3583   001134                     l2262:
  3584   001134  5027               	movf	fputc@fp^0,w,c
  3585   001136  6ED9               	movwf	fsr2l,c
  3586   001138  6ADA               	clrf	fsr2h,c
  3587   00113A  0E09               	movlw	9
  3588   00113C  26D9               	addwf	fsr2l,f,c
  3589   00113E  50DE               	movf	postinc2,w,c
  3590   001140  10DE               	iorwf	postinc2,w,c
  3591   001142  B4D8               	btfsc	status,2,c
  3592   001144  EFA6  F008         	goto	u1641
  3593   001148  EFA8  F008         	goto	u1640
  3594   00114C                     u1641:
  3595   00114C  EFC1  F008         	goto	l2266
  3596   001150                     u1640:
  3597   001150  5027               	movf	fputc@fp^0,w,c
  3598   001152  6ED9               	movwf	fsr2l,c
  3599   001154  6ADA               	clrf	fsr2h,c
  3600   001156  0E09               	movlw	9
  3601   001158  26D9               	addwf	fsr2l,f,c
  3602   00115A  5027               	movf	fputc@fp^0,w,c
  3603   00115C  6EE1               	movwf	fsr1l,c
  3604   00115E  6AE2               	clrf	fsr1h,c
  3605   001160  0E02               	movlw	2
  3606   001162  26E1               	addwf	fsr1l,f,c
  3607   001164  50DE               	movf	postinc2,w,c
  3608   001166  5CE6               	subwf	postinc1,w,c
  3609   001168  50E6               	movf	postinc1,w,c
  3610   00116A  0A80               	xorlw	128
  3611   00116C  6E2C               	movwf	(??_fputc+4)^0,c
  3612   00116E  50DE               	movf	postinc2,w,c
  3613   001170  0A80               	xorlw	128
  3614   001172  582C               	subwfb	(??_fputc+4)^0,w,c
  3615   001174  B0D8               	btfsc	status,0,c
  3616   001176  EFBF  F008         	goto	u1651
  3617   00117A  EFC1  F008         	goto	u1650
  3618   00117E                     u1651:
  3619   00117E  EFD9  F008         	goto	l993
  3620   001182                     u1650:
  3621   001182                     l2266:
  3622   001182  5027               	movf	fputc@fp^0,w,c
  3623   001184  6ED9               	movwf	fsr2l,c
  3624   001186  6ADA               	clrf	fsr2h,c
  3625   001188  0E02               	movlw	2
  3626   00118A  26D9               	addwf	fsr2l,f,c
  3627   00118C  50DF               	movf	indf2,w,c
  3628   00118E  6E28               	movwf	??_fputc^0,c
  3629   001190  5027               	movf	fputc@fp^0,w,c
  3630   001192  6ED9               	movwf	fsr2l,c
  3631   001194  6ADA               	clrf	fsr2h,c
  3632   001196  50DF               	movf	indf2,w,c
  3633   001198  2428               	addwf	??_fputc^0,w,c
  3634   00119A  6ED9               	movwf	fsr2l,c
  3635   00119C  6ADA               	clrf	fsr2h,c
  3636   00119E  C025  FFDF         	movff	fputc@c,indf2
  3637   0011A2  5027               	movf	fputc@fp^0,w,c
  3638   0011A4  6ED9               	movwf	fsr2l,c
  3639   0011A6  6ADA               	clrf	fsr2h,c
  3640   0011A8  0E02               	movlw	2
  3641   0011AA  26D9               	addwf	fsr2l,f,c
  3642   0011AC  2ADE               	incf	postinc2,f,c
  3643   0011AE  0E00               	movlw	0
  3644   0011B0  22DD               	addwfc	postdec2,f,c
  3645   0011B2                     l993:
  3646   0011B2  0012               	return		;funcret
  3647   0011B4                     __end_of_fputc:
  3648                           	callstack 0
  3649                           
  3650 ;; *************** function _putch *****************
  3651 ;; Defined at:
  3652 ;;		line 7 in file "C:\Program Files\Microchip\xc8\v3.00\pic\sources\c99\common\putch.c"
  3653 ;; Parameters:    Size  Location     Type
  3654 ;;  c               1    wreg     unsigned char 
  3655 ;; Auto vars:     Size  Location     Type
  3656 ;;  c               1    0[COMRAM] unsigned char 
  3657 ;; Return value:  Size  Location     Type
  3658 ;;                  1    wreg      void 
  3659 ;; Registers used:
  3660 ;;		wreg
  3661 ;; Tracked objects:
  3662 ;;		On entry : 0/0
  3663 ;;		On exit  : 0/0
  3664 ;;		Unchanged: 0/0
  3665 ;; Data sizes:     COMRAM   BANK0   BANK1   BANK2   BANK3   BANK4   BANK5
  3666 ;;      Params:         0       0       0       0       0       0       0
  3667 ;;      Locals:         0       0       0       0       0       0       0
  3668 ;;      Temps:          0       0       0       0       0       0       0
  3669 ;;      Totals:         0       0       0       0       0       0       0
  3670 ;;Total ram usage:        0 bytes
  3671 ;; Hardware stack levels used: 1
  3672 ;; Hardware stack levels required when called: 4
  3673 ;; This function calls:
  3674 ;;		Nothing
  3675 ;; This function is called by:
  3676 ;;		_fputc
  3677 ;; This function uses a non-reentrant model
  3678 ;;
  3679                           
  3680                           	psect	text19
  3681   0016FC                     __ptext19:
  3682                           	callstack 0
  3683   0016FC                     _putch:
  3684                           	callstack 21
  3685   0016FC  0012               	return		;funcret
  3686   0016FE                     __end_of_putch:
  3687                           	callstack 0
  3688                           
  3689 ;; *************** function ___lwdiv *****************
  3690 ;; Defined at:
  3691 ;;		line 7 in file "C:\Program Files\Microchip\xc8\v3.00\pic\sources\c99\common\lwdiv.c"
  3692 ;; Parameters:    Size  Location     Type
  3693 ;;  dividend        2   36[COMRAM] unsigned int 
  3694 ;;  divisor         2   38[COMRAM] unsigned int 
  3695 ;; Auto vars:     Size  Location     Type
  3696 ;;  quotient        2   41[COMRAM] unsigned int 
  3697 ;;  counter         1   40[COMRAM] unsigned char 
  3698 ;; Return value:  Size  Location     Type
  3699 ;;                  2   36[COMRAM] unsigned int 
  3700 ;; Registers used:
  3701 ;;		wreg, status,2, status,0
  3702 ;; Tracked objects:
  3703 ;;		On entry : 0/0
  3704 ;;		On exit  : 0/0
  3705 ;;		Unchanged: 0/0
  3706 ;; Data sizes:     COMRAM   BANK0   BANK1   BANK2   BANK3   BANK4   BANK5
  3707 ;;      Params:         4       0       0       0       0       0       0
  3708 ;;      Locals:         3       0       0       0       0       0       0
  3709 ;;      Temps:          0       0       0       0       0       0       0
  3710 ;;      Totals:         7       0       0       0       0       0       0
  3711 ;;Total ram usage:        7 bytes
  3712 ;; Hardware stack levels used: 1
  3713 ;; Hardware stack levels required when called: 4
  3714 ;; This function calls:
  3715 ;;		Nothing
  3716 ;; This function is called by:
  3717 ;;		_vfpfcnvrt
  3718 ;; This function uses a non-reentrant model
  3719 ;;
  3720                           
  3721                           	psect	text20
  3722   0011B4                     __ptext20:
  3723                           	callstack 0
  3724   0011B4                     ___lwdiv:
  3725                           	callstack 22
  3726   0011B4  0E00               	movlw	0
  3727   0011B6  6E2B               	movwf	(___lwdiv@quotient+1)^0,c
  3728   0011B8  0E00               	movlw	0
  3729   0011BA  6E2A               	movwf	___lwdiv@quotient^0,c
  3730   0011BC  5027               	movf	___lwdiv@divisor^0,w,c
  3731   0011BE  1028               	iorwf	(___lwdiv@divisor+1)^0,w,c
  3732   0011C0  B4D8               	btfsc	status,2,c
  3733   0011C2  EFE5  F008         	goto	u1561
  3734   0011C6  EFE7  F008         	goto	u1560
  3735   0011CA                     u1561:
  3736   0011CA  EF0F  F009         	goto	l744
  3737   0011CE                     u1560:
  3738   0011CE  0E01               	movlw	1
  3739   0011D0  6E29               	movwf	___lwdiv@counter^0,c
  3740   0011D2  EFEF  F008         	goto	l2226
  3741   0011D6                     l2224:
  3742   0011D6  90D8               	bcf	status,0,c
  3743   0011D8  3627               	rlcf	___lwdiv@divisor^0,f,c
  3744   0011DA  3628               	rlcf	(___lwdiv@divisor+1)^0,f,c
  3745   0011DC  2A29               	incf	___lwdiv@counter^0,f,c
  3746   0011DE                     l2226:
  3747   0011DE  AE28               	btfss	(___lwdiv@divisor+1)^0,7,c
  3748   0011E0  EFF4  F008         	goto	u1571
  3749   0011E4  EFF6  F008         	goto	u1570
  3750   0011E8                     u1571:
  3751   0011E8  EFEB  F008         	goto	l2224
  3752   0011EC                     u1570:
  3753   0011EC                     l2228:
  3754   0011EC  90D8               	bcf	status,0,c
  3755   0011EE  362A               	rlcf	___lwdiv@quotient^0,f,c
  3756   0011F0  362B               	rlcf	(___lwdiv@quotient+1)^0,f,c
  3757   0011F2  5027               	movf	___lwdiv@divisor^0,w,c
  3758   0011F4  5C25               	subwf	___lwdiv@dividend^0,w,c
  3759   0011F6  5028               	movf	(___lwdiv@divisor+1)^0,w,c
  3760   0011F8  5826               	subwfb	(___lwdiv@dividend+1)^0,w,c
  3761   0011FA  A0D8               	btfss	status,0,c
  3762   0011FC  EF02  F009         	goto	u1581
  3763   001200  EF04  F009         	goto	u1580
  3764   001204                     u1581:
  3765   001204  EF09  F009         	goto	l2236
  3766   001208                     u1580:
  3767   001208  5027               	movf	___lwdiv@divisor^0,w,c
  3768   00120A  5E25               	subwf	___lwdiv@dividend^0,f,c
  3769   00120C  5028               	movf	(___lwdiv@divisor+1)^0,w,c
  3770   00120E  5A26               	subwfb	(___lwdiv@dividend+1)^0,f,c
  3771   001210  802A               	bsf	___lwdiv@quotient^0,0,c
  3772   001212                     l2236:
  3773   001212  90D8               	bcf	status,0,c
  3774   001214  3228               	rrcf	(___lwdiv@divisor+1)^0,f,c
  3775   001216  3227               	rrcf	___lwdiv@divisor^0,f,c
  3776   001218  2E29               	decfsz	___lwdiv@counter^0,f,c
  3777   00121A  EFF6  F008         	goto	l2228
  3778   00121E                     l744:
  3779   00121E  C02A  F025         	movff	___lwdiv@quotient,?___lwdiv
  3780   001222  C02B  F026         	movff	___lwdiv@quotient+1,?___lwdiv+1
  3781   001226  0012               	return		;funcret
  3782   001228                     __end_of___lwdiv:
  3783                           	callstack 0
  3784                           
  3785 ;; *************** function _generate_apple *****************
  3786 ;; Defined at:
  3787 ;;		line 52 in file "master.c"
  3788 ;; Parameters:    Size  Location     Type
  3789 ;;  x               2   59[COMRAM] PTR unsigned char 
  3790 ;;		 -> main@apple_x(1), 
  3791 ;;  y               2   61[COMRAM] PTR unsigned char 
  3792 ;;		 -> main@apple_y(1), 
  3793 ;; Auto vars:     Size  Location     Type
  3794 ;;  max_y           2   63[COMRAM] unsigned short 
  3795 ;;  max_x           2    0        unsigned short 
  3796 ;; Return value:  Size  Location     Type
  3797 ;;                  1    wreg      void 
  3798 ;; Registers used:
  3799 ;;		wreg, fsr2l, fsr2h, status,2, status,0, cstack
  3800 ;; Tracked objects:
  3801 ;;		On entry : 0/0
  3802 ;;		On exit  : 0/0
  3803 ;;		Unchanged: 0/0
  3804 ;; Data sizes:     COMRAM   BANK0   BANK1   BANK2   BANK3   BANK4   BANK5
  3805 ;;      Params:         4       0       0       0       0       0       0
  3806 ;;      Locals:         2       0       0       0       0       0       0
  3807 ;;      Temps:          0       0       0       0       0       0       0
  3808 ;;      Totals:         6       0       0       0       0       0       0
  3809 ;;Total ram usage:        6 bytes
  3810 ;; Hardware stack levels used: 1
  3811 ;; Hardware stack levels required when called: 6
  3812 ;; This function calls:
  3813 ;;		___lwmod
  3814 ;;		_rand
  3815 ;; This function is called by:
  3816 ;;		_main
  3817 ;; This function uses a non-reentrant model
  3818 ;;
  3819                           
  3820                           	psect	text21
  3821   00140E                     __ptext21:
  3822                           	callstack 0
  3823   00140E                     _generate_apple:
  3824                           	callstack 24
  3825   00140E                     
  3826                           ;master.c: 54:     uint16_t max_y = 320 / 16 - 1;
  3827   00140E  0E00               	movlw	0
  3828   001410  6E41               	movwf	(generate_apple@max_y+1)^0,c
  3829   001412  0E13               	movlw	19
  3830   001414  6E40               	movwf	generate_apple@max_y^0,c
  3831   001416                     
  3832                           ;master.c: 56:     *x = rand() % max_x;
  3833   001416  EC14  F009         	call	_rand	;wreg free
  3834   00141A  C031  F037         	movff	?_rand,___lwmod@dividend
  3835   00141E  C032  F038         	movff	?_rand+1,___lwmod@dividend+1
  3836   001422  0E00               	movlw	0
  3837   001424  6E3A               	movwf	(___lwmod@divisor+1)^0,c
  3838   001426  0E1D               	movlw	29
  3839   001428  6E39               	movwf	___lwmod@divisor^0,c
  3840   00142A  EC7F  F009         	call	___lwmod	;wreg free
  3841   00142E  5037               	movf	?___lwmod^0,w,c
  3842   001430  C03C  FFD9         	movff	generate_apple@x,fsr2l
  3843   001434  C03D  FFDA         	movff	generate_apple@x+1,fsr2h
  3844   001438  6EDF               	movwf	indf2,c
  3845   00143A                     
  3846                           ;master.c: 57:     *y = rand() % max_y;
  3847   00143A  EC14  F009         	call	_rand	;wreg free
  3848   00143E  C031  F037         	movff	?_rand,___lwmod@dividend
  3849   001442  C032  F038         	movff	?_rand+1,___lwmod@dividend+1
  3850   001446  0E00               	movlw	0
  3851   001448  6E3A               	movwf	(___lwmod@divisor+1)^0,c
  3852   00144A  0E13               	movlw	19
  3853   00144C  6E39               	movwf	___lwmod@divisor^0,c
  3854   00144E  EC7F  F009         	call	___lwmod	;wreg free
  3855   001452  5037               	movf	?___lwmod^0,w,c
  3856   001454  C03E  FFD9         	movff	generate_apple@y,fsr2l
  3857   001458  C03F  FFDA         	movff	generate_apple@y+1,fsr2h
  3858   00145C  6EDF               	movwf	indf2,c
  3859   00145E  0012               	return		;funcret
  3860   001460                     __end_of_generate_apple:
  3861                           	callstack 0
  3862                           
  3863 ;; *************** function _rand *****************
  3864 ;; Defined at:
  3865 ;;		line 11 in file "C:\Program Files\Microchip\xc8\v3.00\pic\sources\c99\common\rand.c"
  3866 ;; Parameters:    Size  Location     Type
  3867 ;;		None
  3868 ;; Auto vars:     Size  Location     Type
  3869 ;;		None
  3870 ;; Return value:  Size  Location     Type
  3871 ;;                  2   48[COMRAM] int 
  3872 ;; Registers used:
  3873 ;;		wreg, status,2, status,0, cstack
  3874 ;; Tracked objects:
  3875 ;;		On entry : 0/0
  3876 ;;		On exit  : 0/0
  3877 ;;		Unchanged: 0/0
  3878 ;; Data sizes:     COMRAM   BANK0   BANK1   BANK2   BANK3   BANK4   BANK5
  3879 ;;      Params:         2       0       0       0       0       0       0
  3880 ;;      Locals:         0       0       0       0       0       0       0
  3881 ;;      Temps:          4       0       0       0       0       0       0
  3882 ;;      Totals:         6       0       0       0       0       0       0
  3883 ;;Total ram usage:        6 bytes
  3884 ;; Hardware stack levels used: 1
  3885 ;; Hardware stack levels required when called: 5
  3886 ;; This function calls:
  3887 ;;		___lmul
  3888 ;; This function is called by:
  3889 ;;		_generate_apple
  3890 ;; This function uses a non-reentrant model
  3891 ;;
  3892                           
  3893                           	psect	text22
  3894   001228                     __ptext22:
  3895                           	callstack 0
  3896   001228                     _rand:
  3897                           	callstack 24
  3898   001228  C056  F025         	movff	_seed,___lmul@multiplier
  3899   00122C  C057  F026         	movff	_seed+1,___lmul@multiplier+1
  3900   001230  C058  F027         	movff	_seed+2,___lmul@multiplier+2
  3901   001234  C059  F028         	movff	_seed+3,___lmul@multiplier+3
  3902   001238  0E2D               	movlw	45
  3903   00123A  6E29               	movwf	___lmul@multiplicand^0,c
  3904   00123C  0E7F               	movlw	127
  3905   00123E  6E2A               	movwf	(___lmul@multiplicand+1)^0,c
  3906   001240  0E95               	movlw	149
  3907   001242  6E2B               	movwf	(___lmul@multiplicand+2)^0,c
  3908   001244  0E4C               	movlw	76
  3909   001246  6E2C               	movwf	(___lmul@multiplicand+3)^0,c
  3910   001248  EC4A  F009         	call	___lmul	;wreg free
  3911   00124C  0E01               	movlw	1
  3912   00124E  2425               	addwf	?___lmul^0,w,c
  3913   001250  6E56               	movwf	_seed^0,c
  3914   001252  0E00               	movlw	0
  3915   001254  2026               	addwfc	(?___lmul+1)^0,w,c
  3916   001256  6E57               	movwf	(_seed+1)^0,c
  3917   001258  0E00               	movlw	0
  3918   00125A  2027               	addwfc	(?___lmul+2)^0,w,c
  3919   00125C  6E58               	movwf	(_seed+2)^0,c
  3920   00125E  0E00               	movlw	0
  3921   001260  2028               	addwfc	(?___lmul+3)^0,w,c
  3922   001262  6E59               	movwf	(_seed+3)^0,c
  3923   001264  C056  F033         	movff	_seed,??_rand
  3924   001268  C057  F034         	movff	_seed+1,??_rand+1
  3925   00126C  C058  F035         	movff	_seed+2,??_rand+2
  3926   001270  C059  F036         	movff	_seed+3,??_rand+3
  3927   001274  0E12               	movlw	18
  3928   001276  EF42  F009         	goto	u1870
  3929   00127A                     u1875:
  3930   00127A  90D8               	bcf	status,0,c
  3931   00127C  3236               	rrcf	(??_rand+3)^0,f,c
  3932   00127E  3235               	rrcf	(??_rand+2)^0,f,c
  3933   001280  3234               	rrcf	(??_rand+1)^0,f,c
  3934   001282  3233               	rrcf	??_rand^0,f,c
  3935   001284                     u1870:
  3936   001284  2EE8               	decfsz	wreg,f,c
  3937   001286  EF3D  F009         	goto	u1875
  3938   00128A  C033  F031         	movff	??_rand,?_rand
  3939   00128E  C034  F032         	movff	??_rand+1,?_rand+1
  3940   001292  0012               	return		;funcret
  3941   001294                     __end_of_rand:
  3942                           	callstack 0
  3943                           
  3944 ;; *************** function ___lmul *****************
  3945 ;; Defined at:
  3946 ;;		line 15 in file "C:\Program Files\Microchip\xc8\v3.00\pic\sources\c99\common\Umul32.c"
  3947 ;; Parameters:    Size  Location     Type
  3948 ;;  multiplier      4   36[COMRAM] unsigned long 
  3949 ;;  multiplicand    4   40[COMRAM] unsigned long 
  3950 ;; Auto vars:     Size  Location     Type
  3951 ;;  product         4   44[COMRAM] unsigned long 
  3952 ;; Return value:  Size  Location     Type
  3953 ;;                  4   36[COMRAM] unsigned long 
  3954 ;; Registers used:
  3955 ;;		wreg, status,2, status,0
  3956 ;; Tracked objects:
  3957 ;;		On entry : 0/0
  3958 ;;		On exit  : 0/0
  3959 ;;		Unchanged: 0/0
  3960 ;; Data sizes:     COMRAM   BANK0   BANK1   BANK2   BANK3   BANK4   BANK5
  3961 ;;      Params:         8       0       0       0       0       0       0
  3962 ;;      Locals:         4       0       0       0       0       0       0
  3963 ;;      Temps:          0       0       0       0       0       0       0
  3964 ;;      Totals:        12       0       0       0       0       0       0
  3965 ;;Total ram usage:       12 bytes
  3966 ;; Hardware stack levels used: 1
  3967 ;; Hardware stack levels required when called: 4
  3968 ;; This function calls:
  3969 ;;		Nothing
  3970 ;; This function is called by:
  3971 ;;		_rand
  3972 ;; This function uses a non-reentrant model
  3973 ;;
  3974                           
  3975                           	psect	text23
  3976   001294                     __ptext23:
  3977                           	callstack 0
  3978   001294                     ___lmul:
  3979                           	callstack 24
  3980   001294  0E00               	movlw	0
  3981   001296  6E2D               	movwf	___lmul@product^0,c
  3982   001298  0E00               	movlw	0
  3983   00129A  6E2E               	movwf	(___lmul@product+1)^0,c
  3984   00129C  0E00               	movlw	0
  3985   00129E  6E2F               	movwf	(___lmul@product+2)^0,c
  3986   0012A0  0E00               	movlw	0
  3987   0012A2  6E30               	movwf	(___lmul@product+3)^0,c
  3988   0012A4                     l2422:
  3989   0012A4  A025               	btfss	___lmul@multiplier^0,0,c
  3990   0012A6  EF57  F009         	goto	u1841
  3991   0012AA  EF59  F009         	goto	u1840
  3992   0012AE                     u1841:
  3993   0012AE  EF61  F009         	goto	l2426
  3994   0012B2                     u1840:
  3995   0012B2  5029               	movf	___lmul@multiplicand^0,w,c
  3996   0012B4  262D               	addwf	___lmul@product^0,f,c
  3997   0012B6  502A               	movf	(___lmul@multiplicand+1)^0,w,c
  3998   0012B8  222E               	addwfc	(___lmul@product+1)^0,f,c
  3999   0012BA  502B               	movf	(___lmul@multiplicand+2)^0,w,c
  4000   0012BC  222F               	addwfc	(___lmul@product+2)^0,f,c
  4001   0012BE  502C               	movf	(___lmul@multiplicand+3)^0,w,c
  4002   0012C0  2230               	addwfc	(___lmul@product+3)^0,f,c
  4003   0012C2                     l2426:
  4004   0012C2  90D8               	bcf	status,0,c
  4005   0012C4  3629               	rlcf	___lmul@multiplicand^0,f,c
  4006   0012C6  362A               	rlcf	(___lmul@multiplicand+1)^0,f,c
  4007   0012C8  362B               	rlcf	(___lmul@multiplicand+2)^0,f,c
  4008   0012CA  362C               	rlcf	(___lmul@multiplicand+3)^0,f,c
  4009   0012CC  90D8               	bcf	status,0,c
  4010   0012CE  3228               	rrcf	(___lmul@multiplier+3)^0,f,c
  4011   0012D0  3227               	rrcf	(___lmul@multiplier+2)^0,f,c
  4012   0012D2  3226               	rrcf	(___lmul@multiplier+1)^0,f,c
  4013   0012D4  3225               	rrcf	___lmul@multiplier^0,f,c
  4014   0012D6  5025               	movf	___lmul@multiplier^0,w,c
  4015   0012D8  1026               	iorwf	(___lmul@multiplier+1)^0,w,c
  4016   0012DA  1027               	iorwf	(___lmul@multiplier+2)^0,w,c
  4017   0012DC  1028               	iorwf	(___lmul@multiplier+3)^0,w,c
  4018   0012DE  A4D8               	btfss	status,2,c
  4019   0012E0  EF74  F009         	goto	u1851
  4020   0012E4  EF76  F009         	goto	u1850
  4021   0012E8                     u1851:
  4022   0012E8  EF52  F009         	goto	l2422
  4023   0012EC                     u1850:
  4024   0012EC  C02D  F025         	movff	___lmul@product,?___lmul
  4025   0012F0  C02E  F026         	movff	___lmul@product+1,?___lmul+1
  4026   0012F4  C02F  F027         	movff	___lmul@product+2,?___lmul+2
  4027   0012F8  C030  F028         	movff	___lmul@product+3,?___lmul+3
  4028   0012FC  0012               	return		;funcret
  4029   0012FE                     __end_of___lmul:
  4030                           	callstack 0
  4031                           
  4032 ;; *************** function ___lwmod *****************
  4033 ;; Defined at:
  4034 ;;		line 7 in file "C:\Program Files\Microchip\xc8\v3.00\pic\sources\c99\common\lwmod.c"
  4035 ;; Parameters:    Size  Location     Type
  4036 ;;  dividend        2   54[COMRAM] unsigned int 
  4037 ;;  divisor         2   56[COMRAM] unsigned int 
  4038 ;; Auto vars:     Size  Location     Type
  4039 ;;  counter         1   58[COMRAM] unsigned char 
  4040 ;; Return value:  Size  Location     Type
  4041 ;;                  2   54[COMRAM] unsigned int 
  4042 ;; Registers used:
  4043 ;;		wreg, status,2, status,0
  4044 ;; Tracked objects:
  4045 ;;		On entry : 0/0
  4046 ;;		On exit  : 0/0
  4047 ;;		Unchanged: 0/0
  4048 ;; Data sizes:     COMRAM   BANK0   BANK1   BANK2   BANK3   BANK4   BANK5
  4049 ;;      Params:         4       0       0       0       0       0       0
  4050 ;;      Locals:         1       0       0       0       0       0       0
  4051 ;;      Temps:          0       0       0       0       0       0       0
  4052 ;;      Totals:         5       0       0       0       0       0       0
  4053 ;;Total ram usage:        5 bytes
  4054 ;; Hardware stack levels used: 1
  4055 ;; Hardware stack levels required when called: 4
  4056 ;; This function calls:
  4057 ;;		Nothing
  4058 ;; This function is called by:
  4059 ;;		_generate_apple
  4060 ;;		_vfpfcnvrt
  4061 ;; This function uses a non-reentrant model
  4062 ;;
  4063                           
  4064                           	psect	text24
  4065   0012FE                     __ptext24:
  4066                           	callstack 0
  4067   0012FE                     ___lwmod:
  4068                           	callstack 22
  4069   0012FE  5039               	movf	___lwmod@divisor^0,w,c
  4070   001300  103A               	iorwf	(___lwmod@divisor+1)^0,w,c
  4071   001302  B4D8               	btfsc	status,2,c
  4072   001304  EF86  F009         	goto	u1591
  4073   001308  EF88  F009         	goto	u1590
  4074   00130C                     u1591:
  4075   00130C  EFAC  F009         	goto	l754
  4076   001310                     u1590:
  4077   001310  0E01               	movlw	1
  4078   001312  6E3B               	movwf	___lwmod@counter^0,c
  4079   001314  EF90  F009         	goto	l2246
  4080   001318                     l2244:
  4081   001318  90D8               	bcf	status,0,c
  4082   00131A  3639               	rlcf	___lwmod@divisor^0,f,c
  4083   00131C  363A               	rlcf	(___lwmod@divisor+1)^0,f,c
  4084   00131E  2A3B               	incf	___lwmod@counter^0,f,c
  4085   001320                     l2246:
  4086   001320  AE3A               	btfss	(___lwmod@divisor+1)^0,7,c
  4087   001322  EF95  F009         	goto	u1601
  4088   001326  EF97  F009         	goto	u1600
  4089   00132A                     u1601:
  4090   00132A  EF8C  F009         	goto	l2244
  4091   00132E                     u1600:
  4092   00132E                     l2248:
  4093   00132E  5039               	movf	___lwmod@divisor^0,w,c
  4094   001330  5C37               	subwf	___lwmod@dividend^0,w,c
  4095   001332  503A               	movf	(___lwmod@divisor+1)^0,w,c
  4096   001334  5838               	subwfb	(___lwmod@dividend+1)^0,w,c
  4097   001336  A0D8               	btfss	status,0,c
  4098   001338  EFA0  F009         	goto	u1611
  4099   00133C  EFA2  F009         	goto	u1610
  4100   001340                     u1611:
  4101   001340  EFA6  F009         	goto	l2252
  4102   001344                     u1610:
  4103   001344  5039               	movf	___lwmod@divisor^0,w,c
  4104   001346  5E37               	subwf	___lwmod@dividend^0,f,c
  4105   001348  503A               	movf	(___lwmod@divisor+1)^0,w,c
  4106   00134A  5A38               	subwfb	(___lwmod@dividend+1)^0,f,c
  4107   00134C                     l2252:
  4108   00134C  90D8               	bcf	status,0,c
  4109   00134E  323A               	rrcf	(___lwmod@divisor+1)^0,f,c
  4110   001350  3239               	rrcf	___lwmod@divisor^0,f,c
  4111   001352  2E3B               	decfsz	___lwmod@counter^0,f,c
  4112   001354  EF97  F009         	goto	l2248
  4113   001358                     l754:
  4114   001358  C037  F037         	movff	___lwmod@dividend,?___lwmod
  4115   00135C  C038  F038         	movff	___lwmod@dividend+1,?___lwmod+1
  4116   001360  0012               	return		;funcret
  4117   001362                     __end_of___lwmod:
  4118                           	callstack 0
  4119                           
  4120 ;; *************** function _low_isr *****************
  4121 ;; Defined at:
  4122 ;;		line 79 in file "main.c"
  4123 ;; Parameters:    Size  Location     Type
  4124 ;;		None
  4125 ;; Auto vars:     Size  Location     Type
  4126 ;;		None
  4127 ;; Return value:  Size  Location     Type
  4128 ;;                  1    wreg      void 
  4129 ;; Registers used:
  4130 ;;		None
  4131 ;; Tracked objects:
  4132 ;;		On entry : 0/0
  4133 ;;		On exit  : 0/0
  4134 ;;		Unchanged: 0/0
  4135 ;; Data sizes:     COMRAM   BANK0   BANK1   BANK2   BANK3   BANK4   BANK5
  4136 ;;      Params:         0       0       0       0       0       0       0
  4137 ;;      Locals:         0       0       0       0       0       0       0
  4138 ;;      Temps:          1       0       0       0       0       0       0
  4139 ;;      Totals:         1       0       0       0       0       0       0
  4140 ;;Total ram usage:        1 bytes
  4141 ;; Hardware stack levels used: 1
  4142 ;; Hardware stack levels required when called: 3
  4143 ;; This function calls:
  4144 ;;		Nothing
  4145 ;; This function is called by:
  4146 ;;		Interrupt level 1
  4147 ;; This function uses a non-reentrant model
  4148 ;;
  4149                           
  4150                           	psect	intcodelo
  4151   000018                     __pintcodelo:
  4152                           	callstack 0
  4153   000018                     _low_isr:
  4154                           	callstack 21
  4155                           
  4156                           ;incstack = 0
  4157   000018  805A               	bsf	int$flags,0,c	;set compiler interrupt flag (level 1)
  4158   00001A  CFE0 F024          	movff	bsr,??_low_isr
  4159   00001E  C024  FFE0         	movff	??_low_isr,bsr
  4160   000022  905A               	bcf	int$flags,0,c	;clear compiler interrupt flag (level 1)
  4161   000024  0010               	retfie	
  4162   000026                     __end_of_low_isr:
  4163                           	callstack 0
  4164                           
  4165 ;; *************** function _high_isr *****************
  4166 ;; Defined at:
  4167 ;;		line 28 in file "main.c"
  4168 ;; Parameters:    Size  Location     Type
  4169 ;;		None
  4170 ;; Auto vars:     Size  Location     Type
  4171 ;;  c               1   34[COMRAM] unsigned char 
  4172 ;;  er              1    0        unsigned char 
  4173 ;; Return value:  Size  Location     Type
  4174 ;;                  1    wreg      void 
  4175 ;; Registers used:
  4176 ;;		wreg, fsr1l, fsr1h, fsr2l, fsr2h, status,2, status,0, tblptrl, tblptrh, tblptru, cstack
  4177 ;; Tracked objects:
  4178 ;;		On entry : 0/0
  4179 ;;		On exit  : 0/0
  4180 ;;		Unchanged: 0/0
  4181 ;; Data sizes:     COMRAM   BANK0   BANK1   BANK2   BANK3   BANK4   BANK5
  4182 ;;      Params:         0       0       0       0       0       0       0
  4183 ;;      Locals:         1       0       0       0       0       0       0
  4184 ;;      Temps:          8       0       0       0       0       0       0
  4185 ;;      Totals:         9       0       0       0       0       0       0
  4186 ;;Total ram usage:        9 bytes
  4187 ;; Hardware stack levels used: 1
  4188 ;; Hardware stack levels required when called: 2
  4189 ;; This function calls:
  4190 ;;		___flge
  4191 ;;		___xxtofl
  4192 ;;		i2_uart_send
  4193 ;;		i2_uart_send_array
  4194 ;; This function is called by:
  4195 ;;		Interrupt level 2
  4196 ;; This function uses a non-reentrant model
  4197 ;;
  4198                           
  4199                           	psect	intcode
  4200   000008                     __pintcode:
  4201                           	callstack 0
  4202   000008                     _high_isr:
  4203                           	callstack 21
  4204                           
  4205                           ;incstack = 0
  4206   000008  825A               	bsf	int$flags,1,c	;set compiler interrupt flag (level 2)
  4207   00000A  EDCE  F005         	call	int_func,f	;refresh shadow registers
  4208                           
  4209                           	psect	intcode_body
  4210   000B9C                     __pintcode_body:
  4211                           	callstack 21
  4212   000B9C                     int_func:
  4213                           	callstack 21
  4214   000B9C  0006               	pop		; remove dummy address from shadow register refresh
  4215   000B9E  CFE1 F01B          	movff	fsr1l,??_high_isr
  4216   000BA2  CFE2 F01C          	movff	fsr1h,??_high_isr+1
  4217   000BA6  CFD9 F01D          	movff	fsr2l,??_high_isr+2
  4218   000BAA  CFDA F01E          	movff	fsr2h,??_high_isr+3
  4219   000BAE  CFF6 F01F          	movff	tblptrl,??_high_isr+4
  4220   000BB2  CFF7 F020          	movff	tblptrh,??_high_isr+5
  4221   000BB6  CFF8 F021          	movff	tblptru,??_high_isr+6
  4222   000BBA  CFF5 F022          	movff	tablat,??_high_isr+7
  4223   000BBE                     
  4224                           ;main.c: 29:     if(PIR1bits.RCIF){
  4225   000BBE  AA9E               	btfss	158,5,c	;volatile
  4226   000BC0  EFE4  F005         	goto	i2u139_41
  4227   000BC4  EFE6  F005         	goto	i2u139_40
  4228   000BC8                     i2u139_41:
  4229   000BC8  EF2A  F006         	goto	i2l2092
  4230   000BCC                     i2u139_40:
  4231   000BCC                     
  4232                           ;main.c: 30:         if(RCSTAbits.FERR){
  4233   000BCC  A4AB               	btfss	171,2,c	;volatile
  4234   000BCE  EFEB  F005         	goto	i2u140_41
  4235   000BD2  EFED  F005         	goto	i2u140_40
  4236   000BD6                     i2u140_41:
  4237   000BD6  EFF0  F005         	goto	i2l68
  4238   000BDA                     i2u140_40:
  4239   000BDA  50AE               	movf	174,w,c	;volatile
  4240                           
  4241                           ;main.c: 32:         }
  4242   000BDC  EF29  F006         	goto	i2l2090
  4243   000BE0                     i2l68:
  4244   000BE0  A2AB               	btfss	171,1,c	;volatile
  4245   000BE2  EFF5  F005         	goto	i2u141_41
  4246   000BE6  EFF7  F005         	goto	i2u141_40
  4247   000BEA                     i2u141_41:
  4248   000BEA  EFFB  F005         	goto	i2l70
  4249   000BEE                     i2u141_40:
  4250   000BEE                     
  4251                           ;main.c: 34:             RCSTAbits.CREN = 0;
  4252   000BEE  98AB               	bcf	171,4,c	;volatile
  4253                           
  4254                           ;main.c: 35:             RCSTAbits.CREN = 1;
  4255   000BF0  88AB               	bsf	171,4,c	;volatile
  4256                           
  4257                           ;main.c: 36:         }
  4258   000BF2  EF29  F006         	goto	i2l2090
  4259   000BF6                     i2l70:
  4260                           
  4261                           ;main.c: 42:             char c = RCREG;
  4262   000BF6  CFAE F023          	movff	4014,high_isr@c	;volatile
  4263   000BFA                     
  4264                           ;main.c: 43:             if(!uart_line_ready) {
  4265   000BFA  0100               	movlb	0	; () banked
  4266   000BFC  51A1               	movf	_uart_line_ready& (0+255),w,b	;volatile
  4267   000BFE  A4D8               	btfss	status,2,c
  4268   000C00  EF04  F006         	goto	i2u142_41
  4269   000C04  EF06  F006         	goto	i2u142_40
  4270   000C08                     i2u142_41:
  4271   000C08  EF29  F006         	goto	i2l2090
  4272   000C0C                     i2u142_40:
  4273   000C0C                     
  4274                           ; BSR set to: 0
  4275                           ;main.c: 44:                 if(c == '\r') {
  4276   000C0C  0E0D               	movlw	13
  4277   000C0E  1823               	xorwf	high_isr@c^0,w,c
  4278   000C10  A4D8               	btfss	status,2,c
  4279   000C12  EF0D  F006         	goto	i2u143_41
  4280   000C16  EF0F  F006         	goto	i2u143_40
  4281   000C1A                     i2u143_41:
  4282   000C1A  EF1F  F006         	goto	i2l2084
  4283   000C1E                     i2u143_40:
  4284   000C1E                     
  4285                           ; BSR set to: 0
  4286                           ;main.c: 45:                     uart_rx_buf[uart_rx_idx] = '\0';
  4287   000C1E  51A0               	movf	_uart_rx_idx& (0+255),w,b
  4288   000C20  0FA6               	addlw	low _uart_rx_buf
  4289   000C22  6ED9               	movwf	fsr2l,c
  4290   000C24  6ADA               	clrf	fsr2h,c
  4291   000C26  6ADF               	clrf	indf2,c
  4292   000C28                     
  4293                           ; BSR set to: 0
  4294                           ;main.c: 46:                     uart_send('\r');
  4295   000C28  0E0D               	movlw	13
  4296   000C2A  EC63  F00B         	call	i2_uart_send
  4297   000C2E                     
  4298                           ;main.c: 47:                     uart_send('\n');
  4299   000C2E  0E0A               	movlw	10
  4300   000C30  EC63  F00B         	call	i2_uart_send
  4301   000C34                     
  4302                           ;main.c: 48:                     uart_line_ready = 1;
  4303   000C34  0E01               	movlw	1
  4304   000C36  0100               	movlb	0	; () banked
  4305   000C38  6FA1               	movwf	_uart_line_ready& (0+255),b	;volatile
  4306                           
  4307                           ;main.c: 49:                 }
  4308   000C3A  EF29  F006         	goto	i2l2090
  4309   000C3E                     i2l2084:
  4310                           
  4311                           ; BSR set to: 0
  4312                           ;main.c: 51:                     uart_rx_buf[uart_rx_idx++] = c;
  4313   000C3E  51A0               	movf	_uart_rx_idx& (0+255),w,b
  4314   000C40  0FA6               	addlw	low _uart_rx_buf
  4315   000C42  6ED9               	movwf	fsr2l,c
  4316   000C44  6ADA               	clrf	fsr2h,c
  4317   000C46  C023  FFDF         	movff	high_isr@c,indf2
  4318   000C4A                     
  4319                           ; BSR set to: 0
  4320   000C4A  2BA0               	incf	_uart_rx_idx& (0+255),f,b	;volatile
  4321   000C4C                     
  4322                           ; BSR set to: 0
  4323                           ;main.c: 52:                     uart_send(c);
  4324   000C4C  5023               	movf	high_isr@c^0,w,c
  4325   000C4E  EC63  F00B         	call	i2_uart_send
  4326   000C52                     i2l2090:
  4327                           
  4328                           ;main.c: 56:         PIR1bits.RCIF=0;
  4329   000C52  9A9E               	bcf	158,5,c	;volatile
  4330   000C54                     i2l2092:
  4331                           
  4332                           ;main.c: 58:     if(INTCONbits.TMR0IF) {
  4333   000C54  A4F2               	btfss	242,2,c	;volatile
  4334   000C56  EF2F  F006         	goto	i2u144_41
  4335   000C5A  EF31  F006         	goto	i2u144_40
  4336   000C5E                     i2u144_41:
  4337   000C5E  EF6F  F006         	goto	i2l2112
  4338   000C62                     i2u144_40:
  4339   000C62                     
  4340                           ;main.c: 59:         TMR0H = 0xE1;
  4341   000C62  0EE1               	movlw	225
  4342   000C64  6ED7               	movwf	215,c	;volatile
  4343                           
  4344                           ;main.c: 60:         TMR0L = 0x7C;
  4345   000C66  0E7C               	movlw	124
  4346   000C68  6ED6               	movwf	214,c	;volatile
  4347   000C6A                     
  4348                           ;main.c: 61:         LATDbits.LATD2 = 0;
  4349   000C6A  948C               	bcf	140,2,c	;volatile
  4350   000C6C                     
  4351                           ;main.c: 63:         sec_counter++;
  4352   000C6C  4A51               	infsnz	_sec_counter^0,f,c	;volatile
  4353   000C6E  2A52               	incf	(_sec_counter+1)^0,f,c	;volatile
  4354   000C70                     
  4355                           ;main.c: 64:         if (sec_counter >= 0.5 * 60) {
  4356   000C70  C051  F001         	movff	_sec_counter,___xxtofl@val	;volatile
  4357   000C74  C052  F002         	movff	_sec_counter+1,___xxtofl@val+1	;volatile
  4358   000C78  6A03               	clrf	(___xxtofl@val+2)^0,c
  4359   000C7A  6A04               	clrf	(___xxtofl@val+3)^0,c
  4360   000C7C  0E00               	movlw	0
  4361   000C7E  EC22  F004         	call	___xxtofl
  4362   000C82  C001  F00F         	movff	?___xxtofl,___flge@ff1
  4363   000C86  C002  F010         	movff	?___xxtofl+1,___flge@ff1+1
  4364   000C8A  C003  F011         	movff	?___xxtofl+2,___flge@ff1+2
  4365   000C8E  C004  F012         	movff	?___xxtofl+3,___flge@ff1+3
  4366   000C92  0E00               	movlw	0
  4367   000C94  6E13               	movwf	___flge@ff2^0,c
  4368   000C96  0E00               	movlw	0
  4369   000C98  6E14               	movwf	(___flge@ff2+1)^0,c
  4370   000C9A  0EF0               	movlw	240
  4371   000C9C  6E15               	movwf	(___flge@ff2+2)^0,c
  4372   000C9E  0E41               	movlw	65
  4373   000CA0  6E16               	movwf	(___flge@ff2+3)^0,c
  4374   000CA2  EC41  F007         	call	___flge	;wreg free
  4375   000CA6  A0D8               	btfss	status,0,c
  4376   000CA8  EF58  F006         	goto	i2u145_41
  4377   000CAC  EF5A  F006         	goto	i2u145_40
  4378   000CB0                     i2u145_41:
  4379   000CB0  EF6E  F006         	goto	i2l2110
  4380   000CB4                     i2u145_40:
  4381   000CB4                     
  4382                           ;main.c: 65:             sec_counter = 0;
  4383   000CB4  0E00               	movlw	0
  4384   000CB6  6E52               	movwf	(_sec_counter+1)^0,c	;volatile
  4385   000CB8  0E00               	movlw	0
  4386   000CBA  6E51               	movwf	_sec_counter^0,c	;volatile
  4387   000CBC                     
  4388                           ;main.c: 67:             LATDbits.LATD2 = 1;
  4389   000CBC  848C               	bsf	140,2,c	;volatile
  4390   000CBE                     
  4391                           ;main.c: 68:             uart_send_array( "TIME\r\n", 6);
  4392   000CBE  0E44               	movlw	low STR_1
  4393   000CC0  6E02               	movwf	i2uart_send_array@c^0,c
  4394   000CC2  5002               	movf	i2uart_send_array@c^0,w,c
  4395   000CC4  A4D8               	btfss	status,2,c
  4396   000CC6  0E06               	movlw	high __smallconst
  4397   000CC8  6E03               	movwf	(i2uart_send_array@c+1)^0,c
  4398   000CCA  0E00               	movlw	0
  4399   000CCC  6E05               	movwf	(i2uart_send_array@len+1)^0,c
  4400   000CCE  0E06               	movlw	6
  4401   000CD0  6E04               	movwf	i2uart_send_array@len^0,c
  4402   000CD2  ECDC  F009         	call	i2_uart_send_array	;wreg free
  4403   000CD6                     
  4404                           ;main.c: 69:             is_game_over = 1;
  4405   000CD6  0E01               	movlw	1
  4406   000CD8  0100               	movlb	0	; () banked
  4407   000CDA  6FA3               	movwf	_is_game_over& (0+255),b	;volatile
  4408   000CDC                     i2l2110:
  4409                           
  4410                           ;main.c: 71:         INTCONbits.TMR0IF = 0;
  4411   000CDC  94F2               	bcf	242,2,c	;volatile
  4412   000CDE                     i2l2112:
  4413                           
  4414                           ;main.c: 73:     if(INTCONbits.INT0IF) {
  4415   000CDE  A2F2               	btfss	242,1,c	;volatile
  4416   000CE0  EF74  F006         	goto	i2u146_41
  4417   000CE4  EF76  F006         	goto	i2u146_40
  4418   000CE8                     i2u146_41:
  4419   000CE8  EF7A  F006         	goto	i2l78
  4420   000CEC                     i2u146_40:
  4421   000CEC                     
  4422                           ;main.c: 74:         game_start = 1;
  4423   000CEC  0E01               	movlw	1
  4424   000CEE  0100               	movlb	0	; () banked
  4425   000CF0  6FA5               	movwf	_game_start& (0+255),b	;volatile
  4426   000CF2                     
  4427                           ; BSR set to: 0
  4428                           ;main.c: 75:         INTCONbits.INT0IF = 0;
  4429   000CF2  92F2               	bcf	242,1,c	;volatile
  4430   000CF4                     i2l78:
  4431   000CF4  C022  FFF5         	movff	??_high_isr+7,tablat
  4432   000CF8  C021  FFF8         	movff	??_high_isr+6,tblptru
  4433   000CFC  C020  FFF7         	movff	??_high_isr+5,tblptrh
  4434   000D00  C01F  FFF6         	movff	??_high_isr+4,tblptrl
  4435   000D04  C01E  FFDA         	movff	??_high_isr+3,fsr2h
  4436   000D08  C01D  FFD9         	movff	??_high_isr+2,fsr2l
  4437   000D0C  C01C  FFE2         	movff	??_high_isr+1,fsr1h
  4438   000D10  C01B  FFE1         	movff	??_high_isr,fsr1l
  4439   000D14  925A               	bcf	int$flags,1,c	;clear compiler interrupt flag (level 2)
  4440   000D16  0011               	retfie		f
  4441   000D18                     __end_of_high_isr:
  4442                           	callstack 0
  4443                           
  4444 ;; *************** function i2_uart_send_array *****************
  4445 ;; Defined at:
  4446 ;;		line 88 in file "uart_layer.c"
  4447 ;; Parameters:    Size  Location     Type
  4448 ;;  c               2    1[COMRAM] PTR unsigned char 
  4449 ;;		 -> handle_game_over@buff(32), send_apple_pos@buff(32), STR_6(10), STR_5(10), 
  4450 ;;		 -> STR_4(10), STR_3(7), STR_2(7), STR_1(7), 
  4451 ;;  len             2    3[COMRAM] unsigned short 
  4452 ;; Auto vars:     Size  Location     Type
  4453 ;;  i               1    7[COMRAM] unsigned char 
  4454 ;; Return value:  Size  Location     Type
  4455 ;;                  1    wreg      void 
  4456 ;; Registers used:
  4457 ;;		wreg, fsr1l, fsr1h, status,2, status,0, tblptrl, tblptrh, tblptru, cstack
  4458 ;; Tracked objects:
  4459 ;;		On entry : 0/0
  4460 ;;		On exit  : 0/0
  4461 ;;		Unchanged: 0/0
  4462 ;; Data sizes:     COMRAM   BANK0   BANK1   BANK2   BANK3   BANK4   BANK5
  4463 ;;      Params:         4       0       0       0       0       0       0
  4464 ;;      Locals:         1       0       0       0       0       0       0
  4465 ;;      Temps:          2       0       0       0       0       0       0
  4466 ;;      Totals:         7       0       0       0       0       0       0
  4467 ;;Total ram usage:        7 bytes
  4468 ;; Hardware stack levels used: 1
  4469 ;; Hardware stack levels required when called: 1
  4470 ;; This function calls:
  4471 ;;		i2_uart_send
  4472 ;; This function is called by:
  4473 ;;		_high_isr
  4474 ;; This function uses a non-reentrant model
  4475 ;;
  4476                           
  4477                           	psect	text27
  4478   0013B8                     __ptext27:
  4479                           	callstack 0
  4480   0013B8                     i2_uart_send_array:
  4481                           	callstack 21
  4482   0013B8                     
  4483                           ;uart_layer.c: 89:     for(uint8_t i = 0; i < len;i++){
  4484   0013B8  6A08               	clrf	i2uart_send_array@i^0,c
  4485   0013BA  EFF8  F009         	goto	i2l2062
  4486   0013BE                     i2l2058:
  4487                           
  4488                           ;uart_layer.c: 90:         uart_send(c[i]);
  4489   0013BE  5008               	movf	i2uart_send_array@i^0,w,c
  4490   0013C0  2402               	addwf	i2uart_send_array@c^0,w,c
  4491   0013C2  6E06               	movwf	??i2_uart_send_array^0,c
  4492   0013C4  0E00               	movlw	0
  4493   0013C6  2003               	addwfc	(i2uart_send_array@c+1)^0,w,c
  4494   0013C8  6E07               	movwf	(??i2_uart_send_array+1)^0,c
  4495   0013CA  C006  FFF6         	movff	??i2_uart_send_array,tblptrl
  4496   0013CE  C007  FFF7         	movff	??i2_uart_send_array+1,tblptrh
  4497   0013D2  6AF8               	clrf	tblptru,c
  4498   0013D4  0E05               	movlw	(high __ramtop+-1)
  4499   0013D6  64F7               	cpfsgt	tblptrh,c
  4500   0013D8  D003               	bra	i2u137_47
  4501   0013DA  0008               	tblrd		*
  4502   0013DC  50F5               	movf	tablat,w,c
  4503   0013DE  D005               	bra	i2u137_40
  4504   0013E0                     i2u137_47:
  4505   0013E0  CFF6 FFE1          	movff	tblptrl,fsr1l
  4506   0013E4  CFF7 FFE2          	movff	tblptrh,fsr1h
  4507   0013E8  50E7               	movf	indf1,w,c
  4508   0013EA                     i2u137_40:
  4509   0013EA  EC63  F00B         	call	i2_uart_send
  4510   0013EE                     
  4511                           ;uart_layer.c: 91:     }
  4512   0013EE  2A08               	incf	i2uart_send_array@i^0,f,c
  4513   0013F0                     i2l2062:
  4514   0013F0  5008               	movf	i2uart_send_array@i^0,w,c
  4515   0013F2  6E06               	movwf	??i2_uart_send_array^0,c
  4516   0013F4  6A07               	clrf	(??i2_uart_send_array+1)^0,c
  4517   0013F6  5004               	movf	i2uart_send_array@len^0,w,c
  4518   0013F8  5C06               	subwf	??i2_uart_send_array^0,w,c
  4519   0013FA  5005               	movf	(i2uart_send_array@len+1)^0,w,c
  4520   0013FC  5807               	subwfb	(??i2_uart_send_array+1)^0,w,c
  4521   0013FE  A0D8               	btfss	status,0,c
  4522   001400  EF04  F00A         	goto	i2u138_41
  4523   001404  EF06  F00A         	goto	i2u138_40
  4524   001408                     i2u138_41:
  4525   001408  EFDF  F009         	goto	i2l2058
  4526   00140C                     i2u138_40:
  4527   00140C  0012               	return		;funcret
  4528   00140E                     __end_ofi2_uart_send_array:
  4529                           	callstack 0
  4530                           
  4531 ;; *************** function i2_uart_send *****************
  4532 ;; Defined at:
  4533 ;;		line 35 in file "uart_layer.c"
  4534 ;; Parameters:    Size  Location     Type
  4535 ;;  c               1    wreg     unsigned char 
  4536 ;; Auto vars:     Size  Location     Type
  4537 ;;  c               1    0[COMRAM] unsigned char 
  4538 ;; Return value:  Size  Location     Type
  4539 ;;                  1    wreg      void 
  4540 ;; Registers used:
  4541 ;;		wreg
  4542 ;; Tracked objects:
  4543 ;;		On entry : 0/0
  4544 ;;		On exit  : 0/0
  4545 ;;		Unchanged: 0/0
  4546 ;; Data sizes:     COMRAM   BANK0   BANK1   BANK2   BANK3   BANK4   BANK5
  4547 ;;      Params:         0       0       0       0       0       0       0
  4548 ;;      Locals:         1       0       0       0       0       0       0
  4549 ;;      Temps:          0       0       0       0       0       0       0
  4550 ;;      Totals:         1       0       0       0       0       0       0
  4551 ;;Total ram usage:        1 bytes
  4552 ;; Hardware stack levels used: 1
  4553 ;; This function calls:
  4554 ;;		Nothing
  4555 ;; This function is called by:
  4556 ;;		_high_isr
  4557 ;;		i2_uart_send_array
  4558 ;; This function uses a non-reentrant model
  4559 ;;
  4560                           
  4561                           	psect	text28
  4562   0016C6                     __ptext28:
  4563                           	callstack 0
  4564   0016C6                     i2_uart_send:
  4565                           	callstack 21
  4566                           
  4567                           ;incstack = 0
  4568                           ;i2uart_send@c stored from wreg
  4569   0016C6  6E01               	movwf	i2uart_send@c^0,c
  4570   0016C8                     
  4571                           ;uart_layer.c: 36:     while(TXSTAbits.TRMT==0){
  4572   0016C8  EF67  F00B         	goto	i2l153
  4573   0016CC                     i2l154:
  4574                           
  4575                           ;uart_layer.c: 37:         __nop();
  4576   0016CC  0000               	nop	
  4577   0016CE                     i2l153:
  4578                           
  4579                           ;uart_layer.c: 36:     while(TXSTAbits.TRMT==0){
  4580   0016CE  A2AC               	btfss	172,1,c	;volatile
  4581   0016D0  EF6C  F00B         	goto	i2u113_41
  4582   0016D4  EF6E  F00B         	goto	i2u113_40
  4583   0016D8                     i2u113_41:
  4584   0016D8  EF66  F00B         	goto	i2l154
  4585   0016DC                     i2u113_40:
  4586   0016DC                     
  4587                           ;uart_layer.c: 39:     TXREG = c;
  4588   0016DC  C001  FFAD         	movff	i2uart_send@c,4013	;volatile
  4589   0016E0  0012               	return		;funcret
  4590   0016E2                     __end_ofi2_uart_send:
  4591                           	callstack 0
  4592                           
  4593 ;; *************** function ___xxtofl *****************
  4594 ;; Defined at:
  4595 ;;		line 10 in file "C:\Program Files\Microchip\xc8\v3.00\pic\sources\c99\common\xxtofl.c"
  4596 ;; Parameters:    Size  Location     Type
  4597 ;;  sign            1    wreg     unsigned char 
  4598 ;;  val             4    0[COMRAM] long 
  4599 ;; Auto vars:     Size  Location     Type
  4600 ;;  sign            1    8[COMRAM] unsigned char 
  4601 ;;  arg             4   10[COMRAM] unsigned long 
  4602 ;;  exp             1    9[COMRAM] unsigned char 
  4603 ;; Return value:  Size  Location     Type
  4604 ;;                  4    0[COMRAM] unsigned char 
  4605 ;; Registers used:
  4606 ;;		wreg, status,2, status,0
  4607 ;; Tracked objects:
  4608 ;;		On entry : 0/0
  4609 ;;		On exit  : 0/0
  4610 ;;		Unchanged: 0/0
  4611 ;; Data sizes:     COMRAM   BANK0   BANK1   BANK2   BANK3   BANK4   BANK5
  4612 ;;      Params:         4       0       0       0       0       0       0
  4613 ;;      Locals:         6       0       0       0       0       0       0
  4614 ;;      Temps:          4       0       0       0       0       0       0
  4615 ;;      Totals:        14       0       0       0       0       0       0
  4616 ;;Total ram usage:       14 bytes
  4617 ;; Hardware stack levels used: 1
  4618 ;; This function calls:
  4619 ;;		Nothing
  4620 ;; This function is called by:
  4621 ;;		_high_isr
  4622 ;; This function uses a non-reentrant model
  4623 ;;
  4624                           
  4625                           	psect	text29
  4626   000844                     __ptext29:
  4627                           	callstack 0
  4628   000844                     ___xxtofl:
  4629                           	callstack 22
  4630                           
  4631                           ;incstack = 0
  4632                           ;___xxtofl@sign stored from wreg
  4633   000844  6E09               	movwf	___xxtofl@sign^0,c
  4634   000846  5009               	movf	___xxtofl@sign^0,w,c
  4635   000848  B4D8               	btfsc	status,2,c
  4636   00084A  EF29  F004         	goto	i2u127_41
  4637   00084E  EF2B  F004         	goto	i2u127_40
  4638   000852                     i2u127_41:
  4639   000852  EF4D  F004         	goto	i2l908
  4640   000856                     i2u127_40:
  4641   000856  BE04               	btfsc	(___xxtofl@val+3)^0,7,c
  4642   000858  EF32  F004         	goto	i2u128_40
  4643   00085C  EF30  F004         	goto	i2u128_41
  4644   000860                     i2u128_41:
  4645   000860  EF4D  F004         	goto	i2l908
  4646   000864                     i2u128_40:
  4647   000864  C001  F005         	movff	___xxtofl@val,??___xxtofl
  4648   000868  C002  F006         	movff	___xxtofl@val+1,??___xxtofl+1
  4649   00086C  C003  F007         	movff	___xxtofl@val+2,??___xxtofl+2
  4650   000870  C004  F008         	movff	___xxtofl@val+3,??___xxtofl+3
  4651   000874  1E05               	comf	??___xxtofl^0,f,c
  4652   000876  1E06               	comf	(??___xxtofl+1)^0,f,c
  4653   000878  1E07               	comf	(??___xxtofl+2)^0,f,c
  4654   00087A  1E08               	comf	(??___xxtofl+3)^0,f,c
  4655   00087C  2A05               	incf	??___xxtofl^0,f,c
  4656   00087E  0E00               	movlw	0
  4657   000880  2206               	addwfc	(??___xxtofl+1)^0,f,c
  4658   000882  2207               	addwfc	(??___xxtofl+2)^0,f,c
  4659   000884  2208               	addwfc	(??___xxtofl+3)^0,f,c
  4660   000886  C005  F00B         	movff	??___xxtofl,___xxtofl@arg
  4661   00088A  C006  F00C         	movff	??___xxtofl+1,___xxtofl@arg+1
  4662   00088E  C007  F00D         	movff	??___xxtofl+2,___xxtofl@arg+2
  4663   000892  C008  F00E         	movff	??___xxtofl+3,___xxtofl@arg+3
  4664   000896  EF55  F004         	goto	i2l2016
  4665   00089A                     i2l908:
  4666   00089A  C001  F00B         	movff	___xxtofl@val,___xxtofl@arg
  4667   00089E  C002  F00C         	movff	___xxtofl@val+1,___xxtofl@arg+1
  4668   0008A2  C003  F00D         	movff	___xxtofl@val+2,___xxtofl@arg+2
  4669   0008A6  C004  F00E         	movff	___xxtofl@val+3,___xxtofl@arg+3
  4670   0008AA                     i2l2016:
  4671   0008AA  5001               	movf	___xxtofl@val^0,w,c
  4672   0008AC  1002               	iorwf	(___xxtofl@val+1)^0,w,c
  4673   0008AE  1003               	iorwf	(___xxtofl@val+2)^0,w,c
  4674   0008B0  1004               	iorwf	(___xxtofl@val+3)^0,w,c
  4675   0008B2  A4D8               	btfss	status,2,c
  4676   0008B4  EF5E  F004         	goto	i2u129_41
  4677   0008B8  EF60  F004         	goto	i2u129_40
  4678   0008BC                     i2u129_41:
  4679   0008BC  EF6A  F004         	goto	i2l2022
  4680   0008C0                     i2u129_40:
  4681   0008C0  0E00               	movlw	0
  4682   0008C2  6E01               	movwf	?___xxtofl^0,c
  4683   0008C4  0E00               	movlw	0
  4684   0008C6  6E02               	movwf	(?___xxtofl+1)^0,c
  4685   0008C8  0E00               	movlw	0
  4686   0008CA  6E03               	movwf	(?___xxtofl+2)^0,c
  4687   0008CC  0E00               	movlw	0
  4688   0008CE  6E04               	movwf	(?___xxtofl+3)^0,c
  4689   0008D0  EFFB  F004         	goto	i2l911
  4690   0008D4                     i2l2022:
  4691   0008D4  0E96               	movlw	150
  4692   0008D6  6E0A               	movwf	___xxtofl@exp^0,c
  4693   0008D8  EF74  F004         	goto	i2l2026
  4694   0008DC                     i2l2024:
  4695   0008DC  2A0A               	incf	___xxtofl@exp^0,f,c
  4696   0008DE  90D8               	bcf	status,0,c
  4697   0008E0  320E               	rrcf	(___xxtofl@arg+3)^0,f,c
  4698   0008E2  320D               	rrcf	(___xxtofl@arg+2)^0,f,c
  4699   0008E4  320C               	rrcf	(___xxtofl@arg+1)^0,f,c
  4700   0008E6  320B               	rrcf	___xxtofl@arg^0,f,c
  4701   0008E8                     i2l2026:
  4702   0008E8  0E00               	movlw	0
  4703   0008EA  140B               	andwf	___xxtofl@arg^0,w,c
  4704   0008EC  6E05               	movwf	??___xxtofl^0,c
  4705   0008EE  0E00               	movlw	0
  4706   0008F0  140C               	andwf	(___xxtofl@arg+1)^0,w,c
  4707   0008F2  6E06               	movwf	(??___xxtofl+1)^0,c
  4708   0008F4  0E00               	movlw	0
  4709   0008F6  140D               	andwf	(___xxtofl@arg+2)^0,w,c
  4710   0008F8  6E07               	movwf	(??___xxtofl+2)^0,c
  4711   0008FA  0EFE               	movlw	254
  4712   0008FC  140E               	andwf	(___xxtofl@arg+3)^0,w,c
  4713   0008FE  6E08               	movwf	(??___xxtofl+3)^0,c
  4714   000900  5005               	movf	??___xxtofl^0,w,c
  4715   000902  1006               	iorwf	(??___xxtofl+1)^0,w,c
  4716   000904  1007               	iorwf	(??___xxtofl+2)^0,w,c
  4717   000906  1008               	iorwf	(??___xxtofl+3)^0,w,c
  4718   000908  A4D8               	btfss	status,2,c
  4719   00090A  EF89  F004         	goto	i2u130_41
  4720   00090E  EF8B  F004         	goto	i2u130_40
  4721   000912                     i2u130_41:
  4722   000912  EF6E  F004         	goto	i2l2024
  4723   000916                     i2u130_40:
  4724   000916  EF99  F004         	goto	i2l915
  4725   00091A                     i2l2028:
  4726   00091A  2A0A               	incf	___xxtofl@exp^0,f,c
  4727   00091C  0E01               	movlw	1
  4728   00091E  260B               	addwf	___xxtofl@arg^0,f,c
  4729   000920  0E00               	movlw	0
  4730   000922  220C               	addwfc	(___xxtofl@arg+1)^0,f,c
  4731   000924  220D               	addwfc	(___xxtofl@arg+2)^0,f,c
  4732   000926  220E               	addwfc	(___xxtofl@arg+3)^0,f,c
  4733   000928  90D8               	bcf	status,0,c
  4734   00092A  320E               	rrcf	(___xxtofl@arg+3)^0,f,c
  4735   00092C  320D               	rrcf	(___xxtofl@arg+2)^0,f,c
  4736   00092E  320C               	rrcf	(___xxtofl@arg+1)^0,f,c
  4737   000930  320B               	rrcf	___xxtofl@arg^0,f,c
  4738   000932                     i2l915:
  4739   000932  0E00               	movlw	0
  4740   000934  140B               	andwf	___xxtofl@arg^0,w,c
  4741   000936  6E05               	movwf	??___xxtofl^0,c
  4742   000938  0E00               	movlw	0
  4743   00093A  140C               	andwf	(___xxtofl@arg+1)^0,w,c
  4744   00093C  6E06               	movwf	(??___xxtofl+1)^0,c
  4745   00093E  0E00               	movlw	0
  4746   000940  140D               	andwf	(___xxtofl@arg+2)^0,w,c
  4747   000942  6E07               	movwf	(??___xxtofl+2)^0,c
  4748   000944  0EFF               	movlw	255
  4749   000946  140E               	andwf	(___xxtofl@arg+3)^0,w,c
  4750   000948  6E08               	movwf	(??___xxtofl+3)^0,c
  4751   00094A  5005               	movf	??___xxtofl^0,w,c
  4752   00094C  1006               	iorwf	(??___xxtofl+1)^0,w,c
  4753   00094E  1007               	iorwf	(??___xxtofl+2)^0,w,c
  4754   000950  1008               	iorwf	(??___xxtofl+3)^0,w,c
  4755   000952  A4D8               	btfss	status,2,c
  4756   000954  EFAE  F004         	goto	i2u131_41
  4757   000958  EFB0  F004         	goto	i2u131_40
  4758   00095C                     i2u131_41:
  4759   00095C  EF8D  F004         	goto	i2l2028
  4760   000960                     i2u131_40:
  4761   000960  EFB8  F004         	goto	i2l2036
  4762   000964                     i2l2034:
  4763   000964  060A               	decf	___xxtofl@exp^0,f,c
  4764   000966  90D8               	bcf	status,0,c
  4765   000968  360B               	rlcf	___xxtofl@arg^0,f,c
  4766   00096A  360C               	rlcf	(___xxtofl@arg+1)^0,f,c
  4767   00096C  360D               	rlcf	(___xxtofl@arg+2)^0,f,c
  4768   00096E  360E               	rlcf	(___xxtofl@arg+3)^0,f,c
  4769   000970                     i2l2036:
  4770   000970  BE0D               	btfsc	(___xxtofl@arg+2)^0,7,c
  4771   000972  EFBD  F004         	goto	i2u132_41
  4772   000976  EFBF  F004         	goto	i2u132_40
  4773   00097A                     i2u132_41:
  4774   00097A  EFC7  F004         	goto	i2l922
  4775   00097E                     i2u132_40:
  4776   00097E  0E02               	movlw	2
  4777   000980  600A               	cpfslt	___xxtofl@exp^0,c
  4778   000982  EFC5  F004         	goto	i2u133_41
  4779   000986  EFC7  F004         	goto	i2u133_40
  4780   00098A                     i2u133_41:
  4781   00098A  EFB2  F004         	goto	i2l2034
  4782   00098E                     i2u133_40:
  4783   00098E                     i2l922:
  4784   00098E  B00A               	btfsc	___xxtofl@exp^0,0,c
  4785   000990  EFCC  F004         	goto	i2u134_41
  4786   000994  EFCE  F004         	goto	i2u134_40
  4787   000998                     i2u134_41:
  4788   000998  EFCF  F004         	goto	i2l2042
  4789   00099C                     i2u134_40:
  4790   00099C  9E0D               	bcf	(___xxtofl@arg+2)^0,7,c
  4791   00099E                     i2l2042:
  4792   00099E  90D8               	bcf	status,0,c
  4793   0009A0  320A               	rrcf	___xxtofl@exp^0,f,c
  4794   0009A2  C00A  F005         	movff	___xxtofl@exp,??___xxtofl
  4795   0009A6  6A06               	clrf	(??___xxtofl+1)^0,c
  4796   0009A8  6A07               	clrf	(??___xxtofl+2)^0,c
  4797   0009AA  6A08               	clrf	(??___xxtofl+3)^0,c
  4798   0009AC  C005  F008         	movff	??___xxtofl,??___xxtofl+3
  4799   0009B0  6A07               	clrf	(??___xxtofl+2)^0,c
  4800   0009B2  6A06               	clrf	(??___xxtofl+1)^0,c
  4801   0009B4  6A05               	clrf	??___xxtofl^0,c
  4802   0009B6  5005               	movf	??___xxtofl^0,w,c
  4803   0009B8  120B               	iorwf	___xxtofl@arg^0,f,c
  4804   0009BA  5006               	movf	(??___xxtofl+1)^0,w,c
  4805   0009BC  120C               	iorwf	(___xxtofl@arg+1)^0,f,c
  4806   0009BE  5007               	movf	(??___xxtofl+2)^0,w,c
  4807   0009C0  120D               	iorwf	(___xxtofl@arg+2)^0,f,c
  4808   0009C2  5008               	movf	(??___xxtofl+3)^0,w,c
  4809   0009C4  120E               	iorwf	(___xxtofl@arg+3)^0,f,c
  4810   0009C6  5009               	movf	___xxtofl@sign^0,w,c
  4811   0009C8  B4D8               	btfsc	status,2,c
  4812   0009CA  EFE9  F004         	goto	i2u135_41
  4813   0009CE  EFEB  F004         	goto	i2u135_40
  4814   0009D2                     i2u135_41:
  4815   0009D2  EFF3  F004         	goto	i2l2052
  4816   0009D6                     i2u135_40:
  4817   0009D6  BE04               	btfsc	(___xxtofl@val+3)^0,7,c
  4818   0009D8  EFF2  F004         	goto	i2u136_40
  4819   0009DC  EFF0  F004         	goto	i2u136_41
  4820   0009E0                     i2u136_41:
  4821   0009E0  EFF3  F004         	goto	i2l2052
  4822   0009E4                     i2u136_40:
  4823   0009E4  8E0E               	bsf	(___xxtofl@arg+3)^0,7,c
  4824   0009E6                     i2l2052:
  4825   0009E6  C00B  F001         	movff	___xxtofl@arg,?___xxtofl
  4826   0009EA  C00C  F002         	movff	___xxtofl@arg+1,?___xxtofl+1
  4827   0009EE  C00D  F003         	movff	___xxtofl@arg+2,?___xxtofl+2
  4828   0009F2  C00E  F004         	movff	___xxtofl@arg+3,?___xxtofl+3
  4829   0009F6                     i2l911:
  4830   0009F6  0012               	return		;funcret
  4831   0009F8                     __end_of___xxtofl:
  4832                           	callstack 0
  4833                           
  4834 ;; *************** function ___flge *****************
  4835 ;; Defined at:
  4836 ;;		line 4 in file "C:\Program Files\Microchip\xc8\v3.00\pic\sources\c99\common\flge.c"
  4837 ;; Parameters:    Size  Location     Type
  4838 ;;  ff1             4   14[COMRAM] unsigned char 
  4839 ;;  ff2             4   18[COMRAM] unsigned char 
  4840 ;; Auto vars:     Size  Location     Type
  4841 ;;		None
  4842 ;; Return value:  Size  Location     Type
  4843 ;;		None               void
  4844 ;; Registers used:
  4845 ;;		wreg, status,2, status,0
  4846 ;; Tracked objects:
  4847 ;;		On entry : 0/0
  4848 ;;		On exit  : 0/0
  4849 ;;		Unchanged: 0/0
  4850 ;; Data sizes:     COMRAM   BANK0   BANK1   BANK2   BANK3   BANK4   BANK5
  4851 ;;      Params:         8       0       0       0       0       0       0
  4852 ;;      Locals:         0       0       0       0       0       0       0
  4853 ;;      Temps:          4       0       0       0       0       0       0
  4854 ;;      Totals:        12       0       0       0       0       0       0
  4855 ;;Total ram usage:       12 bytes
  4856 ;; Hardware stack levels used: 1
  4857 ;; This function calls:
  4858 ;;		Nothing
  4859 ;; This function is called by:
  4860 ;;		_high_isr
  4861 ;; This function uses a non-reentrant model
  4862 ;;
  4863                           
  4864                           	psect	text30
  4865   000E82                     __ptext30:
  4866                           	callstack 0
  4867   000E82                     ___flge:
  4868                           	callstack 22
  4869   000E82  0E00               	movlw	0
  4870   000E84  140F               	andwf	___flge@ff1^0,w,c
  4871   000E86  6E17               	movwf	??___flge^0,c
  4872   000E88  0E00               	movlw	0
  4873   000E8A  1410               	andwf	(___flge@ff1+1)^0,w,c
  4874   000E8C  6E18               	movwf	(??___flge+1)^0,c
  4875   000E8E  0E80               	movlw	128
  4876   000E90  1411               	andwf	(___flge@ff1+2)^0,w,c
  4877   000E92  6E19               	movwf	(??___flge+2)^0,c
  4878   000E94  0E7F               	movlw	127
  4879   000E96  1412               	andwf	(___flge@ff1+3)^0,w,c
  4880   000E98  6E1A               	movwf	(??___flge+3)^0,c
  4881   000E9A  5017               	movf	??___flge^0,w,c
  4882   000E9C  1018               	iorwf	(??___flge+1)^0,w,c
  4883   000E9E  1019               	iorwf	(??___flge+2)^0,w,c
  4884   000EA0  101A               	iorwf	(??___flge+3)^0,w,c
  4885   000EA2  A4D8               	btfss	status,2,c
  4886   000EA4  EF56  F007         	goto	i2u122_41
  4887   000EA8  EF58  F007         	goto	i2u122_40
  4888   000EAC                     i2u122_41:
  4889   000EAC  EF60  F007         	goto	i2l1992
  4890   000EB0                     i2u122_40:
  4891   000EB0  0E00               	movlw	0
  4892   000EB2  6E0F               	movwf	___flge@ff1^0,c
  4893   000EB4  0E00               	movlw	0
  4894   000EB6  6E10               	movwf	(___flge@ff1+1)^0,c
  4895   000EB8  0E00               	movlw	0
  4896   000EBA  6E11               	movwf	(___flge@ff1+2)^0,c
  4897   000EBC  0E00               	movlw	0
  4898   000EBE  6E12               	movwf	(___flge@ff1+3)^0,c
  4899   000EC0                     i2l1992:
  4900   000EC0  0E00               	movlw	0
  4901   000EC2  1413               	andwf	___flge@ff2^0,w,c
  4902   000EC4  6E17               	movwf	??___flge^0,c
  4903   000EC6  0E00               	movlw	0
  4904   000EC8  1414               	andwf	(___flge@ff2+1)^0,w,c
  4905   000ECA  6E18               	movwf	(??___flge+1)^0,c
  4906   000ECC  0E80               	movlw	128
  4907   000ECE  1415               	andwf	(___flge@ff2+2)^0,w,c
  4908   000ED0  6E19               	movwf	(??___flge+2)^0,c
  4909   000ED2  0E7F               	movlw	127
  4910   000ED4  1416               	andwf	(___flge@ff2+3)^0,w,c
  4911   000ED6  6E1A               	movwf	(??___flge+3)^0,c
  4912   000ED8  5017               	movf	??___flge^0,w,c
  4913   000EDA  1018               	iorwf	(??___flge+1)^0,w,c
  4914   000EDC  1019               	iorwf	(??___flge+2)^0,w,c
  4915   000EDE  101A               	iorwf	(??___flge+3)^0,w,c
  4916   000EE0  A4D8               	btfss	status,2,c
  4917   000EE2  EF75  F007         	goto	i2u123_41
  4918   000EE6  EF77  F007         	goto	i2u123_40
  4919   000EEA                     i2u123_41:
  4920   000EEA  EF7F  F007         	goto	i2l1996
  4921   000EEE                     i2u123_40:
  4922   000EEE  0E00               	movlw	0
  4923   000EF0  6E13               	movwf	___flge@ff2^0,c
  4924   000EF2  0E00               	movlw	0
  4925   000EF4  6E14               	movwf	(___flge@ff2+1)^0,c
  4926   000EF6  0E00               	movlw	0
  4927   000EF8  6E15               	movwf	(___flge@ff2+2)^0,c
  4928   000EFA  0E00               	movlw	0
  4929   000EFC  6E16               	movwf	(___flge@ff2+3)^0,c
  4930   000EFE                     i2l1996:
  4931   000EFE  AE12               	btfss	(___flge@ff1+3)^0,7,c
  4932   000F00  EF84  F007         	goto	i2u124_41
  4933   000F04  EF86  F007         	goto	i2u124_40
  4934   000F08                     i2u124_41:
  4935   000F08  EF8F  F007         	goto	i2l2000
  4936   000F0C                     i2u124_40:
  4937   000F0C  6C0F               	negf	___flge@ff1^0,c
  4938   000F0E  1E10               	comf	(___flge@ff1+1)^0,f,c
  4939   000F10  B0D8               	btfsc	status,0,c
  4940   000F12  2A10               	incf	(___flge@ff1+1)^0,f,c
  4941   000F14  1E11               	comf	(___flge@ff1+2)^0,f,c
  4942   000F16  B0D8               	btfsc	status,0,c
  4943   000F18  2A11               	incf	(___flge@ff1+2)^0,f,c
  4944   000F1A  0E80               	movlw	128
  4945   000F1C  5612               	subfwb	(___flge@ff1+3)^0,f,c
  4946   000F1E                     i2l2000:
  4947   000F1E  AE16               	btfss	(___flge@ff2+3)^0,7,c
  4948   000F20  EF94  F007         	goto	i2u125_41
  4949   000F24  EF96  F007         	goto	i2u125_40
  4950   000F28                     i2u125_41:
  4951   000F28  EF9F  F007         	goto	i2l518
  4952   000F2C                     i2u125_40:
  4953   000F2C  6C13               	negf	___flge@ff2^0,c
  4954   000F2E  1E14               	comf	(___flge@ff2+1)^0,f,c
  4955   000F30  B0D8               	btfsc	status,0,c
  4956   000F32  2A14               	incf	(___flge@ff2+1)^0,f,c
  4957   000F34  1E15               	comf	(___flge@ff2+2)^0,f,c
  4958   000F36  B0D8               	btfsc	status,0,c
  4959   000F38  2A15               	incf	(___flge@ff2+2)^0,f,c
  4960   000F3A  0E80               	movlw	128
  4961   000F3C  5616               	subfwb	(___flge@ff2+3)^0,f,c
  4962   000F3E                     i2l518:
  4963   000F3E  0E00               	movlw	0
  4964   000F40  1A0F               	xorwf	___flge@ff1^0,f,c
  4965   000F42  0E00               	movlw	0
  4966   000F44  1A10               	xorwf	(___flge@ff1+1)^0,f,c
  4967   000F46  0E00               	movlw	0
  4968   000F48  1A11               	xorwf	(___flge@ff1+2)^0,f,c
  4969   000F4A  0E80               	movlw	128
  4970   000F4C  1A12               	xorwf	(___flge@ff1+3)^0,f,c
  4971   000F4E  0E00               	movlw	0
  4972   000F50  1A13               	xorwf	___flge@ff2^0,f,c
  4973   000F52  0E00               	movlw	0
  4974   000F54  1A14               	xorwf	(___flge@ff2+1)^0,f,c
  4975   000F56  0E00               	movlw	0
  4976   000F58  1A15               	xorwf	(___flge@ff2+2)^0,f,c
  4977   000F5A  0E80               	movlw	128
  4978   000F5C  1A16               	xorwf	(___flge@ff2+3)^0,f,c
  4979   000F5E  5013               	movf	___flge@ff2^0,w,c
  4980   000F60  5C0F               	subwf	___flge@ff1^0,w,c
  4981   000F62  5014               	movf	(___flge@ff2+1)^0,w,c
  4982   000F64  5810               	subwfb	(___flge@ff1+1)^0,w,c
  4983   000F66  5015               	movf	(___flge@ff2+2)^0,w,c
  4984   000F68  5811               	subwfb	(___flge@ff1+2)^0,w,c
  4985   000F6A  5016               	movf	(___flge@ff2+3)^0,w,c
  4986   000F6C  5812               	subwfb	(___flge@ff1+3)^0,w,c
  4987   000F6E  B0D8               	btfsc	status,0,c
  4988   000F70  EFBC  F007         	goto	i2u126_41
  4989   000F74  EFBE  F007         	goto	i2u126_40
  4990   000F78                     i2u126_41:
  4991   000F78  EFC1  F007         	goto	i2l2006
  4992   000F7C                     i2u126_40:
  4993   000F7C  90D8               	bcf	status,0,c
  4994   000F7E  EFC2  F007         	goto	i2l523
  4995   000F82                     i2l2006:
  4996   000F82  80D8               	bsf	status,0,c
  4997   000F84                     i2l523:
  4998   000F84  0012               	return		;funcret
  4999   000F86                     __end_of___flge:
  5000                           	callstack 0
  5001                           
  5002                           	psect	rparam
  5003   000001                     ___rparam_used  equ	1
  5004   000000                     ___param_bank   equ	0
  5005   000000                     __Lparam        equ	__Lrparam
  5006   000000                     __Hparam        equ	__Hrparam
  5007                           
  5008                           	psect	temp
  5009   00005A                     btemp:
  5010                           	callstack 0
  5011   00005A                     	ds	1
  5012   00005A                     int$flags       set	btemp
  5013   00005B                     wtemp8          set	btemp+1
  5014   00005B                     ttemp5          set	btemp+1
  5015   00005E                     ttemp6          set	btemp+4
  5016   000062                     ttemp7          set	btemp+8
  5017                           
  5018                           	psect	idloc
  5019                           
  5020                           ;Config register IDLOC0 @ 0x200000
  5021                           ;	unspecified, using default values
  5022   200000                     	org	2097152
  5023   200000  FF                 	db	255
  5024                           
  5025                           ;Config register IDLOC1 @ 0x200001
  5026                           ;	unspecified, using default values
  5027   200001                     	org	2097153
  5028   200001  FF                 	db	255
  5029                           
  5030                           ;Config register IDLOC2 @ 0x200002
  5031                           ;	unspecified, using default values
  5032   200002                     	org	2097154
  5033   200002  FF                 	db	255
  5034                           
  5035                           ;Config register IDLOC3 @ 0x200003
  5036                           ;	unspecified, using default values
  5037   200003                     	org	2097155
  5038   200003  FF                 	db	255
  5039                           
  5040                           ;Config register IDLOC4 @ 0x200004
  5041                           ;	unspecified, using default values
  5042   200004                     	org	2097156
  5043   200004  FF                 	db	255
  5044                           
  5045                           ;Config register IDLOC5 @ 0x200005
  5046                           ;	unspecified, using default values
  5047   200005                     	org	2097157
  5048   200005  FF                 	db	255
  5049                           
  5050                           ;Config register IDLOC6 @ 0x200006
  5051                           ;	unspecified, using default values
  5052   200006                     	org	2097158
  5053   200006  FF                 	db	255
  5054                           
  5055                           ;Config register IDLOC7 @ 0x200007
  5056                           ;	unspecified, using default values
  5057   200007                     	org	2097159
  5058   200007  FF                 	db	255
  5059                           
  5060                           	psect	config
  5061                           
  5062                           ; Padding undefined space
  5063   300000                     	org	3145728
  5064   300000  FF                 	db	255
  5065                           
  5066                           ;Config register CONFIG1H @ 0x300001
  5067                           ;	Oscillator Selection bits
  5068                           ;	OSC = INTIO67, Internal oscillator block, port function on RA6 and RA7
  5069                           ;	Fail-Safe Clock Monitor Enable bit
  5070                           ;	FCMEN = OFF, Fail-Safe Clock Monitor disabled
  5071                           ;	Internal/External Oscillator Switchover bit
  5072                           ;	IESO = OFF, Oscillator Switchover mode disabled
  5073   300001                     	org	3145729
  5074   300001  08                 	db	8
  5075                           
  5076                           ;Config register CONFIG2L @ 0x300002
  5077                           ;	Power-up Timer Enable bit
  5078                           ;	PWRT = OFF, PWRT disabled
  5079                           ;	Brown-out Reset Enable bits
  5080                           ;	BOREN = OFF, Brown-out Reset disabled in hardware and software
  5081                           ;	Brown Out Reset Voltage bits
  5082                           ;	BORV = 3, Minimum setting
  5083   300002                     	org	3145730
  5084   300002  19                 	db	25
  5085                           
  5086                           ;Config register CONFIG2H @ 0x300003
  5087                           ;	Watchdog Timer Enable bit
  5088                           ;	WDT = OFF, WDT disabled (control is placed on the SWDTEN bit)
  5089                           ;	Watchdog Timer Postscale Select bits
  5090                           ;	WDTPS = 32768, 1:32768
  5091   300003                     	org	3145731
  5092   300003  1E                 	db	30
  5093                           
  5094                           ; Padding undefined space
  5095   300004                     	org	3145732
  5096   300004  FF                 	db	255
  5097                           
  5098                           ;Config register CONFIG3H @ 0x300005
  5099                           ;	CCP2 MUX bit
  5100                           ;	CCP2MX = PORTC, CCP2 input/output is multiplexed with RC1
  5101                           ;	PORTB A/D Enable bit
  5102                           ;	PBADEN = OFF, PORTB<4:0> pins are configured as digital I/O on Reset
  5103                           ;	Low-Power Timer1 Oscillator Enable bit
  5104                           ;	LPT1OSC = OFF, Timer1 configured for higher power operation
  5105                           ;	MCLR Pin Enable bit
  5106                           ;	MCLRE = ON, MCLR pin enabled; RE3 input pin disabled
  5107   300005                     	org	3145733
  5108   300005  81                 	db	129
  5109                           
  5110                           ;Config register CONFIG4L @ 0x300006
  5111                           ;	Stack Full/Underflow Reset Enable bit
  5112                           ;	STVREN = ON, Stack full/underflow will cause Reset
  5113                           ;	Single-Supply ICSP Enable bit
  5114                           ;	LVP = OFF, Single-Supply ICSP disabled
  5115                           ;	Extended Instruction Set Enable bit
  5116                           ;	XINST = OFF, Instruction set extension and Indexed Addressing mode disabled (Legacy mo
      +                          de)
  5117                           ;	Background Debugger Enable bit
  5118                           ;	DEBUG = 0x1, unprogrammed default
  5119   300006                     	org	3145734
  5120   300006  81                 	db	129
  5121                           
  5122                           ; Padding undefined space
  5123   300007                     	org	3145735
  5124   300007  FF                 	db	255
  5125                           
  5126                           ;Config register CONFIG5L @ 0x300008
  5127                           ;	Code Protection bit
  5128                           ;	CP0 = OFF, Block 0 (000800-001FFFh) not code-protected
  5129                           ;	Code Protection bit
  5130                           ;	CP1 = OFF, Block 1 (002000-003FFFh) not code-protected
  5131                           ;	Code Protection bit
  5132                           ;	CP2 = OFF, Block 2 (004000-005FFFh) not code-protected
  5133                           ;	Code Protection bit
  5134                           ;	CP3 = OFF, Block 3 (006000-007FFFh) not code-protected
  5135   300008                     	org	3145736
  5136   300008  0F                 	db	15
  5137                           
  5138                           ;Config register CONFIG5H @ 0x300009
  5139                           ;	Boot Block Code Protection bit
  5140                           ;	CPB = OFF, Boot block (000000-0007FFh) not code-protected
  5141                           ;	Data EEPROM Code Protection bit
  5142                           ;	CPD = OFF, Data EEPROM not code-protected
  5143   300009                     	org	3145737
  5144   300009  C0                 	db	192
  5145                           
  5146                           ;Config register CONFIG6L @ 0x30000A
  5147                           ;	Write Protection bit
  5148                           ;	WRT0 = OFF, Block 0 (000800-001FFFh) not write-protected
  5149                           ;	Write Protection bit
  5150                           ;	WRT1 = OFF, Block 1 (002000-003FFFh) not write-protected
  5151                           ;	Write Protection bit
  5152                           ;	WRT2 = OFF, Block 2 (004000-005FFFh) not write-protected
  5153                           ;	Write Protection bit
  5154                           ;	WRT3 = OFF, Block 3 (006000-007FFFh) not write-protected
  5155   30000A                     	org	3145738
  5156   30000A  0F                 	db	15
  5157                           
  5158                           ;Config register CONFIG6H @ 0x30000B
  5159                           ;	Configuration Register Write Protection bit
  5160                           ;	WRTC = OFF, Configuration registers (300000-3000FFh) not write-protected
  5161                           ;	Boot Block Write Protection bit
  5162                           ;	WRTB = OFF, Boot block (000000-0007FFh) not write-protected
  5163                           ;	Data EEPROM Write Protection bit
  5164                           ;	WRTD = OFF, Data EEPROM not write-protected
  5165   30000B                     	org	3145739
  5166   30000B  E0                 	db	224
  5167                           
  5168                           ;Config register CONFIG7L @ 0x30000C
  5169                           ;	Table Read Protection bit
  5170                           ;	EBTR0 = OFF, Block 0 (000800-001FFFh) not protected from table reads executed in other
      +                           blocks
  5171                           ;	Table Read Protection bit
  5172                           ;	EBTR1 = OFF, Block 1 (002000-003FFFh) not protected from table reads executed in other
      +                           blocks
  5173                           ;	Table Read Protection bit
  5174                           ;	EBTR2 = OFF, Block 2 (004000-005FFFh) not protected from table reads executed in other
      +                           blocks
  5175                           ;	Table Read Protection bit
  5176                           ;	EBTR3 = OFF, Block 3 (006000-007FFFh) not protected from table reads executed in other
      +                           blocks
  5177   30000C                     	org	3145740
  5178   30000C  0F                 	db	15
  5179                           
  5180                           ;Config register CONFIG7H @ 0x30000D
  5181                           ;	Boot Block Table Read Protection bit
  5182                           ;	EBTRB = OFF, Boot block (000000-0007FFh) not protected from table reads executed in ot
      +                          her blocks
  5183   30000D                     	org	3145741
  5184   30000D  40                 	db	64
  5185                           tosu	equ	0xFFF
  5186                           tosh	equ	0xFFE
  5187                           tosl	equ	0xFFD
  5188                           stkptr	equ	0xFFC
  5189                           pclatu	equ	0xFFB
  5190                           pclath	equ	0xFFA
  5191                           pcl	equ	0xFF9
  5192                           tblptru	equ	0xFF8
  5193                           tblptrh	equ	0xFF7
  5194                           tblptrl	equ	0xFF6
  5195                           tablat	equ	0xFF5
  5196                           prodh	equ	0xFF4
  5197                           prodl	equ	0xFF3
  5198                           indf0	equ	0xFEF
  5199                           postinc0	equ	0xFEE
  5200                           postdec0	equ	0xFED
  5201                           preinc0	equ	0xFEC
  5202                           plusw0	equ	0xFEB
  5203                           fsr0h	equ	0xFEA
  5204                           fsr0l	equ	0xFE9
  5205                           wreg	equ	0xFE8
  5206                           indf1	equ	0xFE7
  5207                           postinc1	equ	0xFE6
  5208                           postdec1	equ	0xFE5
  5209                           preinc1	equ	0xFE4
  5210                           plusw1	equ	0xFE3
  5211                           fsr1h	equ	0xFE2
  5212                           fsr1l	equ	0xFE1
  5213                           bsr	equ	0xFE0
  5214                           indf2	equ	0xFDF
  5215                           postinc2	equ	0xFDE
  5216                           postdec2	equ	0xFDD
  5217                           preinc2	equ	0xFDC
  5218                           plusw2	equ	0xFDB
  5219                           fsr2h	equ	0xFDA
  5220                           fsr2l	equ	0xFD9
  5221                           status	equ	0xFD8

Data Sizes:
    Strings     81
    Constant    0
    Data        1
    BSS         183
    Persistent  0
    Stack       0

Auto Spaces:
    Space          Size  Autos    Used
    COMRAM          126     76      89
    BANK0           128     51     122
    BANK1           256      9     109
    BANK2           256      0       0
    BANK3           256      0       0
    BANK4           256      0       0
    BANK5           244      0       0

Pointer List with Targets:

    f$.$buffer	PTR unsigned char  size(1) Largest target is 32
		 -> handle_game_over@buff(BANK0[32]), send_apple_pos@buff(BANK0[32]), 

    f$.$source	PTR const unsigned char  size(2) Largest target is 0

    feed_snake_packet@pos	PTR unsigned char  size(1) Largest target is 6
		 -> parse_command_from_pc@pos(COMRAM[6]), 

    fputc@fp	PTR struct _IO_FILE size(1) Largest target is 11
		 -> sprintf@f(BANK0[11]), 

    fputc@fp$.$buffer	PTR unsigned char  size(1) Largest target is 32
		 -> handle_game_over@buff(BANK0[32]), send_apple_pos@buff(BANK0[32]), 

    fputc@fp$.$source	PTR const unsigned char  size(2) Largest target is 0

    generate_apple@x	PTR unsigned char  size(2) Largest target is 1
		 -> main@apple_x(BANK1[1]), 

    generate_apple@y	PTR unsigned char  size(2) Largest target is 1
		 -> main@apple_y(BANK1[1]), 

    memset@dest	PTR void  size(2) Largest target is 50
		 -> snake_x_rx(BANK1[50]), snake_y_rx(BANK1[50]), 

    memset@p	PTR unsigned char  size(2) Largest target is 50
		 -> snake_x_rx(BANK1[50]), snake_y_rx(BANK1[50]), 

    parse_command_from_pc@line	PTR unsigned char  size(1) Largest target is 32
		 -> uart_rx_buf(BANK0[32]), 

    S1578$buffer	PTR unsigned char  size(1) Largest target is 32
		 -> handle_game_over@buff(BANK0[32]), send_apple_pos@buff(BANK0[32]), 

    S1578$source	PTR const unsigned char  size(2) Largest target is 0

    sp__memset	PTR void  size(2) Largest target is 50
		 -> snake_x_rx(BANK1[50]), snake_y_rx(BANK1[50]), 

    sprintf@ap	PTR void [1] size(1) Largest target is 2
		 -> ?_sprintf(BANK0[2]), 

    sprintf@fmt	PTR const unsigned char  size(1) Largest target is 18
		 -> STR_7(CODE[18]), STR_8(CODE[12]), 

    sprintf@s	PTR unsigned char  size(1) Largest target is 32
		 -> handle_game_over@buff(BANK0[32]), send_apple_pos@buff(BANK0[32]), 

    strlen@a	PTR const unsigned char  size(1) Largest target is 32
		 -> handle_game_over@buff(BANK0[32]), send_apple_pos@buff(BANK0[32]), uart_rx_buf(BANK0[32]), 

    strlen@s	PTR const unsigned char  size(1) Largest target is 32
		 -> handle_game_over@buff(BANK0[32]), send_apple_pos@buff(BANK0[32]), uart_rx_buf(BANK0[32]), 

    uart_send_array@c	PTR unsigned char  size(2) Largest target is 32
		 -> handle_game_over@buff(BANK0[32]), send_apple_pos@buff(BANK0[32]), STR_1(CODE[7]), STR_2(CODE[7]), 
		 -> STR_3(CODE[7]), STR_4(CODE[10]), STR_5(CODE[10]), STR_6(CODE[10]), 

    vfpfcnvrt@ap	PTR PTR void  size(1) Largest target is 1
		 -> sprintf@ap(BANK0[1]), 

    vfpfcnvrt@cp	PTR unsigned char  size(1) Largest target is 18
		 -> STR_7(CODE[18]), STR_8(CODE[12]), 

    vfpfcnvrt@fmt	PTR PTR unsigned char  size(1) Largest target is 1
		 -> vfprintf@cfmt(COMRAM[1]), 

    vfpfcnvrt@fp	PTR struct _IO_FILE size(1) Largest target is 11
		 -> sprintf@f(BANK0[11]), 

    vfprintf@ap	PTR PTR void  size(1) Largest target is 1
		 -> sprintf@ap(BANK0[1]), 

    vfprintf@cfmt	PTR unsigned char  size(1) Largest target is 18
		 -> STR_7(CODE[18]), STR_8(CODE[12]), 

    vfprintf@fmt	PTR const unsigned char  size(1) Largest target is 18
		 -> STR_7(CODE[18]), STR_8(CODE[12]), 

    vfprintf@fp	PTR struct _IO_FILE size(1) Largest target is 11
		 -> sprintf@f(BANK0[11]), 


Critical Paths under _main in COMRAM

    _main->_send_apple_pos
    _parse_command_from_pc->_feed_snake_packet
    _feed_snake_packet->_uart_rx_from_player
    _uart_rx_from_player->_uart_send_array
    _uart_send_array->_strlen
    _sprintf->_vfprintf
    _vfprintf->_vfpfcnvrt
    _vfpfcnvrt->___lwmod
    _generate_apple->___lwmod
    _rand->___lmul
    ___lwmod->_rand

Critical Paths under _low_isr in COMRAM

    None.

Critical Paths under _high_isr in COMRAM

    _high_isr->___flge
    i2_uart_send_array->i2_uart_send
    ___flge->___xxtofl

Critical Paths under _main in BANK0

    _main->_send_apple_pos
    _send_apple_pos->_sprintf
    _handle_game_over->_sprintf

Critical Paths under _low_isr in BANK0

    None.

Critical Paths under _high_isr in BANK0

    None.

Critical Paths under _main in BANK1

    None.

Critical Paths under _low_isr in BANK1

    None.

Critical Paths under _high_isr in BANK1

    None.

Critical Paths under _main in BANK2

    None.

Critical Paths under _low_isr in BANK2

    None.

Critical Paths under _high_isr in BANK2

    None.

Critical Paths under _main in BANK3

    None.

Critical Paths under _low_isr in BANK3

    None.

Critical Paths under _high_isr in BANK3

    None.

Critical Paths under _main in BANK4

    None.

Critical Paths under _low_isr in BANK4

    None.

Critical Paths under _high_isr in BANK4

    None.

Critical Paths under _main in BANK5

    None.

Critical Paths under _low_isr in BANK5

    None.

Critical Paths under _high_isr in BANK5

    None.

Call Graph Tables:

 ---------------------------------------------------------------------------------
 (Depth) Function   	        Calls       Base Space   Used Autos Params    Refs
 ---------------------------------------------------------------------------------
 (0) _main                                                12    12      0    9254
                                             74 COMRAM     2     2      0
                                              0 BANK1      9     9      0
                     _generate_apple
                   _handle_game_over
              _parse_command_from_pc
                     _send_apple_pos
                              _srand
                        _system_init
                        _timer0_init
                          _uart_init
                    _uart_send_array
 ---------------------------------------------------------------------------------
 (1) _uart_init                                            8     0      8     167
                                             36 COMRAM     8     0      8
 ---------------------------------------------------------------------------------
 (1) _timer0_init                                          0     0      0       0
 ---------------------------------------------------------------------------------
 (1) _system_init                                          0     0      0       0
 ---------------------------------------------------------------------------------
 (1) _srand                                                4     2      2      34
                                             36 COMRAM     4     2      2
 ---------------------------------------------------------------------------------
 (1) _send_apple_pos                                      34    33      1    2544
                                             73 COMRAM     1     0      1
                                             18 BANK0     33    33      0
                            _sprintf
                             _strlen
                    _uart_send_array
 ---------------------------------------------------------------------------------
 (1) _parse_command_from_pc                               12    11      1    2805
                                             54 COMRAM    12    11      1
                  _feed_snake_packet
                             _strlen
                _uart_rx_from_player
 ---------------------------------------------------------------------------------
 (2) _feed_snake_packet                                    4     2      2    1186
                                             50 COMRAM     4     2      2
                _uart_rx_from_player
 ---------------------------------------------------------------------------------
 (2) _uart_rx_from_player                                  4     4      0    1019
                                             46 COMRAM     4     4      0
                            ___awdiv
                             _memset
                    _uart_send_array
 ---------------------------------------------------------------------------------
 (3) _memset                                               8     2      6     155
                                             36 COMRAM     8     2      6
 ---------------------------------------------------------------------------------
 (3) ___awdiv                                              8     4      4     457
                                             36 COMRAM     8     4      4
 ---------------------------------------------------------------------------------
 (1) _handle_game_over                                    32    32      0    2460
                                             18 BANK0     32    32      0
                            _sprintf
                             _strlen
                    _uart_send_array
 ---------------------------------------------------------------------------------
 (1) _uart_send_array                                      7     3      4     219
                                             39 COMRAM     7     3      4
                             _strlen (ARG)
                          _uart_send
 ---------------------------------------------------------------------------------
 (2) _uart_send                                            1     1      0      47
                                             36 COMRAM     1     1      0
 ---------------------------------------------------------------------------------
 (2) _strlen                                               3     1      2     139
                                             36 COMRAM     3     1      2
 ---------------------------------------------------------------------------------
 (2) _sprintf                                             20    14      6    1988
                                              0 BANK0     18    12      6
                           _vfprintf
 ---------------------------------------------------------------------------------
 (3) _vfprintf                                             4     1      3    1670
                                             69 COMRAM     4     1      3
                          _vfpfcnvrt
 ---------------------------------------------------------------------------------
 (4) _vfpfcnvrt                                           11     8      3    1470
                                             59 COMRAM    10     7      3
                            ___lwdiv
                            ___lwmod
                              _fputc
 ---------------------------------------------------------------------------------
 (5) _fputc                                                8     5      3     329
                                             36 COMRAM     8     5      3
                              _putch
 ---------------------------------------------------------------------------------
 (6) _putch                                                1     1      0       0
 ---------------------------------------------------------------------------------
 (5) ___lwdiv                                              7     3      4     247
                                             36 COMRAM     7     3      4
 ---------------------------------------------------------------------------------
 (1) _generate_apple                                       8     4      4     534
                                             59 COMRAM     6     2      4
                            ___lwmod
                               _rand
 ---------------------------------------------------------------------------------
 (2) _rand                                                 6     4      2     142
                                             48 COMRAM     6     4      2
                             ___lmul
 ---------------------------------------------------------------------------------
 (3) ___lmul                                              12     4      8     142
                                             36 COMRAM    12     4      8
 ---------------------------------------------------------------------------------
 (5) ___lwmod                                              5     1      4     250
                                             54 COMRAM     5     1      4
                               _rand (ARG)
 ---------------------------------------------------------------------------------
 Estimated maximum stack depth 6
 ---------------------------------------------------------------------------------
 (Depth) Function   	        Calls       Base Space   Used Autos Params    Refs
 ---------------------------------------------------------------------------------
 (7) _low_isr                                              1     1      0       0
                                             35 COMRAM     1     1      0
 ---------------------------------------------------------------------------------
 Estimated maximum stack depth 7
 ---------------------------------------------------------------------------------
 (Depth) Function   	        Calls       Base Space   Used Autos Params    Refs
 ---------------------------------------------------------------------------------
 (8) _high_isr                                            10    10      0     739
                                             26 COMRAM     9     9      0
                             ___flge
                           ___xxtofl
                        i2_uart_send
                  i2_uart_send_array
 ---------------------------------------------------------------------------------
 (9) i2_uart_send_array                                    7     3      4     121
                                              1 COMRAM     7     3      4
                        i2_uart_send
 ---------------------------------------------------------------------------------
 (10) i2_uart_send                                         1     1      0      29
                                              0 COMRAM     1     1      0
 ---------------------------------------------------------------------------------
 (9) ___xxtofl                                            14    10      4     337
                                              0 COMRAM    14    10      4
 ---------------------------------------------------------------------------------
 (9) ___flge                                              12     4      8     184
                                             14 COMRAM    12     4      8
                           ___xxtofl (ARG)
 ---------------------------------------------------------------------------------
 Estimated maximum stack depth 10
 ---------------------------------------------------------------------------------

 Call Graph Graphs:

 _main (ROOT)
   _generate_apple
     ___lwmod
       _rand (ARG)
         ___lmul
     _rand
   _handle_game_over
     _sprintf
       _vfprintf
         _vfpfcnvrt
           ___lwdiv
           ___lwmod
           _fputc
             _putch
     _strlen
     _uart_send_array
       _strlen (ARG)
       _uart_send (ARG)
   _parse_command_from_pc
     _feed_snake_packet
       _uart_rx_from_player
         ___awdiv
         _memset
         _uart_send_array
     _strlen
     _uart_rx_from_player
   _send_apple_pos
     _sprintf
     _strlen
     _uart_send_array
   _srand
   _system_init
   _timer0_init
   _uart_init
   _uart_send_array

 _low_isr (ROOT)

 _high_isr (ROOT)
   ___flge
     ___xxtofl (ARG)
   ___xxtofl
   i2_uart_send
   i2_uart_send_array
     i2_uart_send

Address spaces:
Name               Size   Autos  Total    Usage
BIGRAM            1523      0       0      0.0%
BITBANK4           256      0       0      0.0%
BANK4              256      0       0      0.0%
BITBANK3           256      0       0      0.0%
BANK3              256      0       0      0.0%
BITBANK2           256      0       0      0.0%
BANK2              256      0       0      0.0%
BITBANK1           256      0       0      0.0%
BANK1              256      9     109     42.6%
BITBANK5           244      0       0      0.0%
BANK5              244      0       0      0.0%
BITBANK0           128      0       0      0.0%
BANK0              128     51     122     95.3%
BITCOMRAM          126      0       0      0.0%
COMRAM             126     76      89     70.6%
BITBIGSFR_1h        38      0       0      0.0%
BITBIGSFRh          15      0       0      0.0%
BITBIGSFR_1llh      12      0       0      0.0%
BITBIGSFR_5h        11      0       0      0.0%
BITBIGSFRll         10      0       0      0.0%
BITBIGSFR_2h         3      0       0      0.0%
BITBIGSFR_4          3      0       0      0.0%
BITBIGSFR_3          3      0       0      0.0%
BITBIGSFRlh          1      0       0      0.0%
BITBIGSFR_1lh        1      0       0      0.0%
BITBIGSFR_5l         1      0       0      0.0%
STACK                0      0       0      0.0%
DATA                 0      0     320      0.0%


Microchip Technology PIC18 Macro Assembler V3.00 build 20241204225717 
Symbol Table                                                                                   Tue Nov 25 15:47:58 2025

                           l91 06BA                             l95 0754                   ___awdiv@sign 002A  
                           bsr 0FE0            __end_of_system_init 1662                            l106 0838  
                          l221 1660                            l230 168A                            l150 1596  
                          l215 16A8                            l224 145E                            l153 16B2  
                          l154 16B0                            l250 1046                            l218 1640  
                          l227 155E                            l156 16C4                            l180 13B6  
                          l173 0B44                            l165 0A32                            l174 0B9A  
                          l239 14E6                            l264 12EC                            l168 0A8C  
                          l265 12FC                            l484 1108                            l751 1226  
                          l744 121E                            l761 1360                            l754 1358  
                          l930 15CE                            l937 1606                            l981 1524  
                          l974 0E80                            l993 11B2            __end_ofi2_uart_send 16E2  
                          wreg 0FE8           ?_uart_rx_from_player 0001                send_apple_pos@x 00F8  
              send_apple_pos@y 004A                    main@apple_x 016B                    main@apple_y 016C  
           i2uart_send_array@c 0002             i2uart_send_array@i 0008                           l1012 1292  
                         l1004 16FC                           l1009 16FA                           l1018 1634  
                         l2220 11BC                           l2300 107E                           l2230 11F2  
                         l2222 11CE                           l2214 16AC                           l2310 10B6  
                         l2302 1086                           l2240 12FE                           l2232 1208  
                         l2224 11D6                           l2216 16C0                           l2320 10E2  
                         l2312 10BC                           l2304 1098                           l2400 0AFC  
                         l2250 1344                           l2242 1310                           l2234 1210  
                         l2226 11DE                           l2218 11B4                           l2330 0D18  
                         l2314 10D2                           l2306 10A0                           l2322 10E8  
                         l2410 0B62                           l2402 0B26                           l2252 134C  
                         l2244 1318                           l2420 1294                           l2236 1212  
                         l2228 11EC                           l2260 112A                           l2340 0D5C  
                         l2332 0D3A                           l2324 10F8                           l2316 10DA  
                         l2308 10A8                           l2404 0B2E                           l2500 165C  
                         l2254 1352                           l2246 1320                           l2422 12A4  
                         l2238 1218                           l2262 1134                           l2350 0DC6  
                         l2342 0D78                           l2334 0D42                           l2430 14E8  
                         l2270 1362                           l2326 1100                           l2318 10DC  
                         l2406 0B3E                           l2414 0B68                           l2502 165E  
                         l2510 156C                           l2248 132E                           l2424 12B2  
                         l2440 1228                           l2264 1150                           l2256 110A  
                         l2360 0E24                           l2352 0DE2                           l2344 0D90  
                         l2336 0D4E                           l2432 14F0                           l2272 1368  
                         l2280 15A4                           l2408 0B4A                           l2520 158E  
                         l2512 156E                           l2504 1560                           l2600 06D6  
                         l2426 12C2                           l2442 1264                           l2266 1182  
                         l2258 111A                           l2354 0DF4                           l2346 0D9E  
                         l2338 0D52                           l2370 0E5E                           l2434 1500  
                         l2450 15E2                           l2274 1398                           l2290 1058  
                         l2282 15B0                           l2530 1692                           l2522 1590  
                         l2514 1570                           l2506 1564                           l2610 071C  
                         l2602 06E2                           l2428 12CC                           l2356 0E08  
                         l2348 0DA2                           l2364 0E3A                           l2436 151C  
                         l2452 15EA                           l2460 1610                           l2276 139A  
                         l2292 1060                           l2284 15B4                           l2380 0A0E  
                         l2540 169E                           l2532 1696                           l2524 1592  
                         l2516 157A                           l2508 1568                           l2620 0734  
                         l2612 0720                           l2604 06F6                           l2358 0E22  
                         l2366 0E52                           l2454 15FA                           l2446 15D0  
                         l2462 1612                           l2294 1064                           l2286 1048  
                         l2278 1598                           l2390 0A70                           l2382 0A14  
                         l2470 14AA                           l2550 152A                           l2542 16E2  
                         l2534 1698                           l2526 1594                           l2518 1584  
                         l2630 0780                           l2622 0738                           l2606 0702  
                         l2544 140E                           l2448 15DA                           l2464 1628  
                         l2296 1072                           l2288 104A                           l2392 0A9A  
                         l2384 0A16                           l2376 09FA                           l2480 14C4  
                         l2560 0FC2                           l2552 0F86                           l2536 169A  
                         l2528 168C                           l2640 07D4                           l2632 0782  
                         l2608 0714                           l2624 0758                           l2546 1416  
                         l2458 1608                           l2298 107A                           l2394 0AC0  
                         l2386 0A34                           l2378 09FE                           l2482 14E0  
                         l2570 1004                           l2562 0FCE                           l2554 0F9E  
                         l2490 1652                           l2538 169C                           l2650 080C  
                         l2634 0798                           l2626 0768                           l2642 07D8  
                         l2618 072A                           l2548 143A                           l2396 0AE2  
                         l2388 0A6C                           l2476 14B2                           l2468 14A4  
                         l2572 1008                           l2556 0FA8                           l2492 1654  
                         l2484 1636                           l2652 081C                           l2644 07E8  
                         l2636 07B2                           l2628 077A                           l2580 0654  
                         l2398 0AFA                           l2478 14C0                           l2574 1020  
                         l2566 0FEC                           l2558 0FC0                           l2494 1656  
                         l2486 1638                           l2654 0834                           l2646 07FC  
                         l2638 07BA                           l2590 068C                           l2582 065C  
                         l2576 103A                           l2568 1002                           l2496 1658  
                         l2488 164E                           l2648 0808                           l2592 06A4  
                         l2584 0660                           l2578 1662                           l2498 165A  
                         l2594 06A6                           l2586 0664                           l2676 0B7C  
                         l2596 06A8                           l2588 0688                           l2598 06BE  
                         STR_1 0644                           STR_2 064B                           STR_3 063D  
                         STR_4 061F                           STR_5 0629                           STR_6 0633  
                         STR_7 0601                           STR_8 0613                           u2000 0754  
                         u2001 0750                           u2010 0768                           u2011 0764  
                         u2020 077A                           u2021 0776                           u2030 0798  
                         u2031 0794                           u2040 07E8                           u2041 07E4  
                         u2050 081C                           u2051 0818         ?_parse_command_from_pc 0037  
                         u1600 132E                           u1601 132A                           u1610 1344  
                         u1611 1340                           u2067 0696                           u1620 111A  
                         u1700 1072                           u1621 1116                           u1701 106E  
                         u1630 112A                           u1550 16C0                           u1710 1098  
                         u1631 1126                           u1551 16BC                           u1711 1094  
                         u1560 11CE                           u1640 1150                           u1720 10B6  
                         u1800 0A0E                           u1561 11CA                           u1641 114C  
                         u1721 10B2                           u1801 0A0A                           u1570 11EC  
                         u1650 1182                           u1730 10D2                           u1810 0A9A  
                         u1571 11E8                           u1651 117E                           u1731 10CE  
                         u1811 0A96                           u1580 1208                           u1660 1394  
                         u1740 10F8                           u1820 0B26                           u1900 164E  
                         u1581 1204                           u1741 10F4                           u1821 0B22  
                         u1901 164A                           u1590 1310                           u1750 0D3A  
                         u1670 13B6                           u1830 0B3E                           u1591 130C  
                         u1751 0D36                           u1671 13B2                           u1831 0B3A  
                         u1840 12B2                           u1760 0D78                           u1680 15CE  
                         u1841 12AE                           u1761 0D74                           u1681 15CA  
                         u1850 12EC                           u1770 0DF4                           u1690 1058  
                         u1851 12E8                           u1771 0DF0                           u1667 138A  
                         u1691 1054                           u1915 1578                           u1780 0E04  
                         u1860 151C                           u1940 0F9E                           u1916 157A  
                         u1781 0E00                           u1861 1518                           u1941 0F9A  
                         u1925 1582                           u1870 1284                           u1790 0E36  
                         u1950 0FC0                           u1926 1584                           u1791 0E32  
                         u1951 0FBC                           u1935 158C                           u1880 1628  
                         u1960 0FE8                           u1936 158E                           u1881 1624  
                         u1961 0FE4                           u1890 14E0                           u1970 1020  
                         u1875 127A                           u1891 14DC                           u1971 101C  
                         u1980 06BA                           u1981 06B6                           u1990 0714  
                         u1991 0710                           i1l84 001E                           i2l70 0BF6  
                         i2l68 0BE0                           i2l78 0CF4                           _dbuf 0080  
                         _main 0654                           _rand 1228                           _seed 0056  
                         _prec 004F                           fsr1h 0FE2                           fsr2h 0FDA  
                         indf1 0FE7                           indf2 0FDF                           fsr1l 0FE1  
                         fsr2l 0FD9                           btemp 005A              i2_uart_send_array 13B8  
                         prodh 0FF4                           prodl 0FF3                           start 0026  
           ?i2_uart_send_array 0002                   ___param_bank 0000            ??i2_uart_send_array 0006  
                        ?_main 0001                          ?_rand 0031                __end_of___awdiv 110A  
              ___awdiv@divisor 0027                __end_of___lwdiv 1228                __end_of___lwmod 1362  
                        i2l153 16CE                          i2l154 16CC                          i2l156 16E0  
                        i2l180 140C                          i2l523 0F84                          i2l518 0F3E  
                        i2l911 09F6                          i2l922 098E                          i2l915 0932  
                        i2l908 089A                ___awdiv@counter 0029                          _RCREG 0FAE  
                 vfpfcnvrt@fmt 003D                          _TMR0H 0FD7                          _TMR0L 0FD6  
                        _SPBRG 0FAF                          _TXREG 0FAD          ??_uart_rx_from_player 002F  
          ___lmul@multiplicand 0029                          _flags 0053                          _fputc 110A  
                        _srand 16E2                          _width 004D                          _putch 16FC  
                        main@i 0169                __end_of_low_isr 0026                          tablat 0FF5  
    __end_ofi2_uart_send_array 140E                          ttemp5 005B                          ttemp6 005E  
                        ttemp7 0062                          status 0FD8                          wtemp8 005B  
              __end_of_sprintf 1608                __initialization 1460                    _system_init 1636  
                 __end_of_main 0844                   __end_of_rand 1294              ??_uart_send_array 002C  
                  i2_uart_send 16C6                         ??_main 004B                         ??_rand 0033  
                __activetblptr 0002               ??_generate_apple 0040           i2uart_send_array@len 0004  
                       _ADCON1 0FC1                         ?_fputc 0025               ___awdiv@dividend 0025  
                       ?_srand 0025                         ?_putch 0001                         i1l1520 001E  
                       i2l2000 0F1E                         i2l2002 0F2C                         i2l2010 0846  
                       i2l2004 0F7C                         i2l2012 0856                         i2l2100 0C70  
                       i2l2006 0F82                         i2l2030 091C                         i2l2022 08D4  
                       i2l2014 0864                         i2l2102 0CB4                         i2l2110 0CDC  
                       i2l2040 099C                         i2l2032 0928                         i2l2024 08DC  
                       i2l2016 08AA                         i2l2104 0CBC                         i2l2112 0CDE  
                       i2l2050 09E4                         i2l2042 099E                         i2l2034 0964  
                       i2l2026 08E8                         i2l2018 08C0                         i2l2114 0CEC  
                       i2l2106 0CBE                         i2l2052 09E6                         i2l2044 09A2  
                       i2l2036 0970                         i2l2028 091A                         i2l2060 13EE  
                       i2l2116 0CF2                         i2l2108 0CD6                         i2l2046 09C6  
                       i2l2038 097E                         i2l2062 13F0                         i2l2070 0BEE  
                       i2l2048 09D6                         i2l2056 13B8                         i2l2080 0C2E  
                       i2l2072 0BFA                         i2l2064 0BBE                         i2l2058 13BE  
                       i2l2082 0C34                         i2l2074 0C0C                         i2l2090 0C52  
                       i2l2066 0BCC                         i2l2076 0C1E                         i2l2084 0C3E  
                       i2l2068 0BDA                         i2l2092 0C54                         i2l2094 0C62  
                       i2l2086 0C4A                         i2l2078 0C28                         i2l2096 0C6A  
                       i2l2088 0C4C                         i2l2098 0C6C                         i2l1890 16DC  
                       i2l1990 0EB0                         i2l1992 0EC0                         i2l1888 16C8  
                       i2l1994 0EEE                         i2l1996 0EFE                         i2l1988 0E82  
                       i2l1998 0F0C      parse_command_from_pc@flag 003F      parse_command_from_pc@line 0037  
                       _SPBRGH 0FB0               __end_of___xxtofl 09F8                   vfprintf@cfmt 0049  
             __end_of_high_isr 0D18                         ___flge 0E82                         ___lmul 1294  
                    ??___awdiv 0029                   ?_timer0_init 0001                      ??___lwdiv 0029  
                    ??___lwmod 003B                generate_apple@x 003C                generate_apple@y 003E  
                       _memset 1598                         clear_0 1478                         clear_1 1484  
                       clear_2 1490               ___awdiv@quotient 002B                         isa$std 0001  
                       _strlen 1608                         fputc@c 0025               _handle_game_over 1662  
                 __mediumconst 0600                      ??_low_isr 0024                         tblptrh 0FF7  
                       tblptrl 0FF6                         tblptru 0FF8                         srand@s 0025  
                       putch@c 0001               __end_of_vfprintf 1526                 _send_apple_pos 1526  
                    ??_sprintf 004A                     ___flge@ff1 000F                     ___flge@ff2 0013  
                 ___xxtofl@arg 000B                   ___xxtofl@exp 000A                   ___xxtofl@val 0001  
                   __accesstop 0080        __end_of__initialization 1496                  ___rparam_used 0001  
               __pcstackCOMRAM 0001                   __pidataBANK0 16FE                  __end_of_fputc 11B4  
                __end_of_srand 16FC                  __end_of_putch 16FE         __end_of_send_apple_pos 1560  
      ??_parse_command_from_pc 0038                        ??_fputc 0028                        ??_srand 0027  
                      ??_putch 0025             send_apple_pos@buff 00D8                     __pbssBANK0 0080  
                   __pbssBANK1 0100                        ?___flge 000F                     _game_start 00A5  
                      ?___lmul 0025                _uart_line_ready 00A1                        ?_memset 0025  
               ___lmul@product 002D                        ?_strlen 0025                      ?___xxtofl 0001  
              ?_send_apple_pos 004A                      ?_high_isr 0001                _uart_send_array 1362  
                      __Hparam 0000                        __Lparam 0000                   ?_system_init 0001  
                      ___awdiv 1048                   ?i2_uart_send 0001            generate_apple@max_y 0040  
                      ___lwdiv 11B4                        ___lwmod 12FE                      ?_vfprintf 0046  
                 __psmallconst 0600                        __pcinit 1460    __end_of_uart_rx_from_player 0B9C  
                      __ramtop 0600                        __ptext0 0654                        __ptext1 1560  
                      __ptext2 168C                        __ptext3 1636                        __ptext4 16E2  
                      __ptext5 1526                        __ptext6 0F86                        __ptext7 14A4  
                      __ptext8 09F8                        __ptext9 1598                      _T0CONbits 0FD5  
                   ??___xxtofl 0005                        _low_isr 0018                        _sprintf 15D0  
                   ??_high_isr 001B                 __pintcode_body 0B9C           end_of_initialization 1496  
                      fputc@fp 0027                        memset@c 0027                        memset@n 0029  
                      memset@p 002B                  __Lmediumconst 0000                        int_func 0B9C  
            __end_of_uart_init 1598              __end_of_uart_send 16C6       __end_of_handle_game_over 168C  
             uart_init@gen_reg 0025              __end_of_vfpfcnvrt 0E82                      _RCSTAbits 0FAB  
                      postdec2 0FDD                        postinc0 0FEE                        postinc1 0FE6  
                      postinc2 0FDE                     _snake_x_rx 0132               vfpfcnvrt@convarg 0040  
                   _snake_y_rx 0100                     ??_vfprintf 0049                        strlen@a 0027  
                      strlen@s 0025                  ___xxtofl@sign 0009                      _TRISBbits 0F93  
                    _TRISCbits 0F94                      _TRISDbits 0F95        __end_of_uart_send_array 13B8  
                    _TXSTAbits 0FAC                 __end_of___flge 0F86                 __end_of___lmul 12FE  
                  vfpfcnvrt@ap 003E                    vfpfcnvrt@cp 0044                    vfpfcnvrt@fp 003C  
                 i2uart_send@c 0001                    _BAUDCONbits 0FB8                 __end_of_memset 15D0  
               __end_of_strlen 1636            start_initialization 1460           uart_rx_from_player@c 0032  
__end_of_parse_command_from_pc 1048                    vfprintf@fmt 0047                   _is_game_over 00A3  
                     ??___flge 0017                       ??___lmul 002D                    __pdataBANK0 00F9  
                     ??_memset 002B                     memset@dest 0025               ??_send_apple_pos 004B  
                     ??_strlen 0027                    __pbssCOMRAM 004D                  __pcstackBANK0 00C6  
                __pcstackBANK1 0164               ?_uart_send_array 0028               ___lwdiv@dividend 0025  
                    __pintcode 0008                       ?___awdiv 0025                       ?___lwdiv 0025  
                     ?___lwmod 0037                    __pintcodelo 0018                    __smallconst 0600  
             uart_send_array@c 0028               uart_send_array@i 002E                       ?_low_isr 0001  
             ___lwdiv@quotient 002A                       ?_sprintf 00C6                main@first_frame 0167  
                  _apple_eaten 00A4                       _LATBbits 0F8A                       _LATDbits 0F8C  
                     _IPR1bits 0F9F                       _PIE1bits 0F9D                       i2u113_40 16DC  
                     i2u113_41 16D8                       i2u122_40 0EB0                       i2u130_40 0916  
                     i2u122_41 0EAC                       i2u130_41 0912                       i2u123_40 0EEE  
                     i2u131_40 0960                       i2u123_41 0EEA                       i2u131_41 095C  
                     i2u124_40 0F0C                       i2u132_40 097E                       i2u140_40 0BDA  
                     i2u124_41 0F08                       i2u132_41 097A                       i2u140_41 0BD6  
                     i2u125_40 0F2C                       i2u133_40 098E                       i2u141_40 0BEE  
                     i2u125_41 0F28                       i2u133_41 098A                       i2u141_41 0BEA  
                     i2u126_40 0F7C                       i2u134_40 099C                       i2u142_40 0C0C  
                     i2u126_41 0F78                       i2u134_41 0998                       i2u142_41 0C08  
                     i2u135_40 09D6                       i2u127_40 0856                       i2u143_40 0C1E  
                     i2u135_41 09D2                       i2u127_41 0852                       i2u143_41 0C1A  
                     i2u136_40 09E4                       i2u128_40 0864                       i2u144_40 0C62  
                     i2u136_41 09E0                       i2u128_41 0860                       i2u144_41 0C5E  
                     i2u129_40 08C0                       i2u137_40 13EA                       i2u145_40 0CB4  
                     i2u129_41 08BC                       i2u145_41 0CB0                       i2u137_47 13E0  
                     i2u138_40 140C                       i2u146_40 0CEC                       i2u138_41 1408  
                     i2u146_41 0CE8                       i2u139_40 0BCC                       i2u139_41 0BC8  
            ?_handle_game_over 0001                       _PIR1bits 0F9E                       _RCONbits 0FD0  
                    _uart_init 1560             ??_handle_game_over 004A                  ??_timer0_init 0025  
                    _uart_send 16AA                     uart_send@c 0025                      _vfpfcnvrt 0D18  
                    main@i_413 0168                      high_isr@c 0023             uart_send_array@len 002A  
                   vfpfcnvrt@c 0045              ___lmul@multiplier 0025                    _INTCON2bits 0FF1  
               _generate_apple 140E                  _snake_updated 00A2                       __Hrparam 0000  
     parse_command_from_pc@idx 0040       parse_command_from_pc@pos 0039                     vfprintf@ap 0048  
                     __Lrparam 0000                     vfprintf@fp 0046                     ?_uart_init 0025  
                   ?_uart_send 0001                     ?_vfpfcnvrt 003C            __end_of_timer0_init 16AA  
                   sprintf@fmt 00C7                       ___xxtofl 0844                ___lwdiv@divisor 0027  
              ___lwdiv@counter 0029                       __ptext10 1048                       __ptext11 1662  
                     __ptext20 11B4                       __ptext12 1362                       __ptext21 140E  
                     __ptext13 16AA                       __ptext30 0E82                       __ptext22 1228  
                     __ptext14 1608                       __ptext23 1294                       __ptext15 15D0  
                     __ptext24 12FE                       __ptext16 14E8                       __ptext17 0D18  
                     __ptext18 110A                       __ptext27 13B8                       __ptext19 16FC  
                     __ptext28 16C6                       __ptext29 0844              _feed_snake_packet 14A4  
       __end_of_generate_apple 1460                       _high_isr 0008             ?_feed_snake_packet 0033  
         handle_game_over@buff 00D8                    _sec_counter 0051            ??_feed_snake_packet 0035  
               uart_init@brg16 002B                       isa$xinst 0000                       int$flags 005A  
                     _vfprintf 14E8                       main@seed 0165                   _snake_len_rx 00F9  
                   _INTCONbits 0FF2      __end_of_feed_snake_packet 14E8                main@prev_tail_y 0164  
              ?_generate_apple 003C                       intlevel1 0000                       intlevel2 0000  
                    sprintf@ap 00CC          _parse_command_from_pc 0F86               ___lwmod@dividend 0037  
        feed_snake_packet@flag 0034                     _OSCCONbits 0FD3                  uart_init@brgh 0029  
                ??_system_init 0025                  uart_init@sync 0027                  ??i2_uart_send 0001  
                  ??_uart_init 002D                    ??_uart_send 0025                    _timer0_init 168C  
                  ??_vfpfcnvrt 003F         parse_command_from_pc@i 0041                       sprintf@f 00CD  
                     sprintf@s 00C6                ___lwmod@divisor 0039                ___lwmod@counter 003B  
                  _uart_rx_buf 00A6                    _uart_rx_idx 00A0           feed_snake_packet@pos 0033  
           feed_snake_packet@i 0035    uart_rx_from_player@rx_index 0054    uart_rx_from_player@rx_state 0055  
          _uart_rx_from_player 09F8  
